ARM GAS  /tmp/ccSwRXu6.s 			page 1


   1              		.syntax unified
   2              		.cpu cortex-m4
   3              		.fpu softvfp
   4              		.eabi_attribute 20, 1
   5              		.eabi_attribute 21, 1
   6              		.eabi_attribute 23, 3
   7              		.eabi_attribute 24, 1
   8              		.eabi_attribute 25, 1
   9              		.eabi_attribute 26, 1
  10              		.eabi_attribute 30, 2
  11              		.eabi_attribute 34, 1
  12              		.eabi_attribute 18, 4
  13              		.thumb
  14              		.file	"adc_lld.c"
  15              		.text
  16              	.Ltext0:
  17              		.cfi_sections	.debug_frame
  18              		.section	.text.adc_lld_init,"ax",%progbits
  19              		.align	2
  20              		.p2align 4,,15
  21              		.global	adc_lld_init
  22              		.thumb
  23              		.thumb_func
  24              		.type	adc_lld_init, %function
  25              	adc_lld_init:
  26              	.LFB120:
  27              		.file 1 "./ChibiOS/os/hal/platforms/STM32F4xx/adc_lld.c"
  28              		.loc 1 171 0
  29              		.cfi_startproc
  30              		@ args = 0, pretend = 0, frame = 0
  31              		@ frame_needed = 0, uses_anonymous_args = 0
  32 0000 10B5     		push	{r4, lr}
  33              	.LCFI0:
  34              		.cfi_def_cfa_offset 8
  35              		.cfi_offset 4, -8
  36              		.cfi_offset 14, -4
  37              		.loc 1 175 0
  38 0002 40F20004 		movw	r4, #:lower16:.LANCHOR0
  39 0006 C0F20004 		movt	r4, #:upper16:.LANCHOR0
  40 000a 2046     		mov	r0, r4
  41 000c FFF7FEFF 		bl	adcObjectInit
  42              	.LVL0:
  43              		.loc 1 176 0
  44 0010 4FF40052 		mov	r2, #8192
  45 0014 C4F20102 		movt	r2, 16385
  46 0018 A262     		str	r2, [r4, #40]
  47              		.loc 1 178 0
  48 001a 42F61643 		movw	r3, #11286
  49              		.loc 1 177 0
  50 001e 054A     		ldr	r2, .L2
  51              		.loc 1 178 0
  52 0020 C0F20203 		movt	r3, 2
  53              		.loc 1 214 0
  54 0024 1220     		movs	r0, #18
  55 0026 6021     		movs	r1, #96
  56              		.loc 1 177 0
  57 0028 E262     		str	r2, [r4, #44]
ARM GAS  /tmp/ccSwRXu6.s 			page 2


  58              		.loc 1 178 0
  59 002a 2363     		str	r3, [r4, #48]
  60              		.loc 1 215 0
  61 002c BDE81040 		pop	{r4, lr}
  62              		.loc 1 214 0
  63 0030 FFF7FEBF 		b	nvicEnableVector
  64              	.LVL1:
  65              	.L3:
  66              		.align	2
  67              	.L2:
  68 0034 90000000 		.word	_stm32_dma_streams+144
  69              		.cfi_endproc
  70              	.LFE120:
  71              		.size	adc_lld_init, .-adc_lld_init
  72 0038 AFF30080 		.section	.text.adc_lld_start,"ax",%progbits
  72      AFF30080 
  73              		.align	2
  74              		.p2align 4,,15
  75              		.global	adc_lld_start
  76              		.thumb
  77              		.thumb_func
  78              		.type	adc_lld_start, %function
  79              	adc_lld_start:
  80              	.LFB121:
  81              		.loc 1 224 0
  82              		.cfi_startproc
  83              		@ args = 0, pretend = 0, frame = 0
  84              		@ frame_needed = 0, uses_anonymous_args = 0
  85              	.LVL2:
  86              		.loc 1 227 0
  87 0000 0378     		ldrb	r3, [r0, #0]	@ zero_extendqisi2
  88 0002 012B     		cmp	r3, #1
  89              		.loc 1 224 0
  90 0004 10B5     		push	{r4, lr}
  91              	.LCFI1:
  92              		.cfi_def_cfa_offset 8
  93              		.cfi_offset 4, -8
  94              		.cfi_offset 14, -4
  95              		.loc 1 224 0
  96 0006 0446     		mov	r4, r0
  97              		.loc 1 227 0
  98 0008 00D0     		beq	.L8
  99 000a 10BD     		pop	{r4, pc}
 100              	.L8:
 101              		.loc 1 229 0
 102 000c 1448     		ldr	r0, .L10
 103              	.LVL3:
 104 000e 8442     		cmp	r4, r0
 105 0010 10D0     		beq	.L9
 106              	.L6:
 107              		.loc 1 269 0
 108 0012 4FF40C52 		mov	r2, #8960
 109 0016 C4F20102 		movt	r2, 16385
 110              		.loc 1 274 0
 111 001a A36A     		ldr	r3, [r4, #40]
 112              		.loc 1 269 0
 113 001c 5068     		ldr	r0, [r2, #4]
ARM GAS  /tmp/ccSwRXu6.s 			page 3


 114 001e 00F44000 		and	r0, r0, #12582912
 115 0022 40F48030 		orr	r0, r0, #65536
 116 0026 5060     		str	r0, [r2, #4]
 117              		.loc 1 274 0
 118 0028 0021     		movs	r1, #0
 119              		.loc 1 276 0
 120 002a 0122     		movs	r2, #1
 121              		.loc 1 274 0
 122 002c 5960     		str	r1, [r3, #4]
 123              		.loc 1 275 0
 124 002e 9960     		str	r1, [r3, #8]
 125              		.loc 1 276 0
 126 0030 9A60     		str	r2, [r3, #8]
 127 0032 10BD     		pop	{r4, pc}
 128              	.L9:
 129              	.LBB2:
 130              		.loc 1 231 0
 131 0034 0B4A     		ldr	r2, .L10+4
 132 0036 E06A     		ldr	r0, [r4, #44]
 133 0038 0621     		movs	r1, #6
 134 003a 2346     		mov	r3, r4
 135 003c FFF7FEFF 		bl	dmaStreamAllocate
 136              	.LVL4:
 137              		.loc 1 236 0
 138 0040 E16A     		ldr	r1, [r4, #44]
 139 0042 42F24C02 		movw	r2, #8268
 140 0046 0868     		ldr	r0, [r1, #0]
 141              		.loc 1 237 0
 142 0048 4FF46053 		mov	r3, #14336
 143 004c C4F20203 		movt	r3, 16386
 144              		.loc 1 236 0
 145 0050 C4F20102 		movt	r2, 16385
 146 0054 8260     		str	r2, [r0, #8]
 147              		.loc 1 237 0
 148 0056 596C     		ldr	r1, [r3, #68]
 149 0058 41F48072 		orr	r2, r1, #256
 150 005c 5A64     		str	r2, [r3, #68]
 151 005e D8E7     		b	.L6
 152              	.L11:
 153              		.align	2
 154              	.L10:
 155 0060 00000000 		.word	.LANCHOR0
 156 0064 00000000 		.word	adc_lld_serve_rx_interrupt
 157              	.LBE2:
 158              		.cfi_endproc
 159              	.LFE121:
 160              		.size	adc_lld_start, .-adc_lld_start
 161 0068 AFF30080 		.section	.text.adc_lld_stop,"ax",%progbits
 161      AFF30080 
 162              		.align	2
 163              		.p2align 4,,15
 164              		.global	adc_lld_stop
 165              		.thumb
 166              		.thumb_func
 167              		.type	adc_lld_stop, %function
 168              	adc_lld_stop:
 169              	.LFB122:
ARM GAS  /tmp/ccSwRXu6.s 			page 4


 170              		.loc 1 287 0
 171              		.cfi_startproc
 172              		@ args = 0, pretend = 0, frame = 0
 173              		@ frame_needed = 0, uses_anonymous_args = 0
 174              	.LVL5:
 175              		.loc 1 290 0
 176 0000 0378     		ldrb	r3, [r0, #0]	@ zero_extendqisi2
 177 0002 022B     		cmp	r3, #2
 178              		.loc 1 287 0
 179 0004 10B5     		push	{r4, lr}
 180              	.LCFI2:
 181              		.cfi_def_cfa_offset 8
 182              		.cfi_offset 4, -8
 183              		.cfi_offset 14, -4
 184              		.loc 1 287 0
 185 0006 0446     		mov	r4, r0
 186              		.loc 1 290 0
 187 0008 00D0     		beq	.L16
 188              	.LVL6:
 189              	.L12:
 190 000a 10BD     		pop	{r4, pc}
 191              	.LVL7:
 192              	.L16:
 193              		.loc 1 291 0
 194 000c C06A     		ldr	r0, [r0, #44]
 195              	.LVL8:
 196 000e FFF7FEFF 		bl	dmaStreamRelease
 197              	.LVL9:
 198              		.loc 1 296 0
 199 0012 0849     		ldr	r1, .L17
 200              		.loc 1 292 0
 201 0014 A06A     		ldr	r0, [r4, #40]
 202 0016 0022     		movs	r2, #0
 203              		.loc 1 296 0
 204 0018 8C42     		cmp	r4, r1
 205              		.loc 1 292 0
 206 001a 4260     		str	r2, [r0, #4]
 207              		.loc 1 293 0
 208 001c 8260     		str	r2, [r0, #8]
 209              		.loc 1 296 0
 210 001e F4D1     		bne	.L12
 211              		.loc 1 297 0
 212 0020 4FF46053 		mov	r3, #14336
 213 0024 C4F20203 		movt	r3, 16386
 214 0028 586C     		ldr	r0, [r3, #68]
 215 002a 20F48072 		bic	r2, r0, #256
 216 002e 5A64     		str	r2, [r3, #68]
 217 0030 EBE7     		b	.L12
 218              	.L18:
 219 0032 00BF     		.align	2
 220              	.L17:
 221 0034 00000000 		.word	.LANCHOR0
 222              		.cfi_endproc
 223              	.LFE122:
 224              		.size	adc_lld_stop, .-adc_lld_stop
 225 0038 AFF30080 		.section	.text.adc_lld_start_conversion,"ax",%progbits
 225      AFF30080 
ARM GAS  /tmp/ccSwRXu6.s 			page 5


 226              		.align	2
 227              		.p2align 4,,15
 228              		.global	adc_lld_start_conversion
 229              		.thumb
 230              		.thumb_func
 231              		.type	adc_lld_start_conversion, %function
 232              	adc_lld_start_conversion:
 233              	.LFB123:
 234              		.loc 1 319 0
 235              		.cfi_startproc
 236              		@ args = 0, pretend = 0, frame = 0
 237              		@ frame_needed = 0, uses_anonymous_args = 0
 238              		@ link register save eliminated.
 239              	.LVL10:
 240              		.loc 1 321 0
 241 0000 0369     		ldr	r3, [r0, #16]
 242              	.LVL11:
 243              		.loc 1 324 0
 244 0002 026B     		ldr	r2, [r0, #48]
 245              	.LVL12:
 246              		.loc 1 325 0
 247 0004 1978     		ldrb	r1, [r3, #0]	@ zero_extendqisi2
 248              		.loc 1 319 0
 249 0006 2DE9F003 		push	{r4, r5, r6, r7, r8, r9}
 250              	.LCFI3:
 251              		.cfi_def_cfa_offset 24
 252              		.cfi_offset 4, -24
 253              		.cfi_offset 5, -20
 254              		.cfi_offset 6, -16
 255              		.cfi_offset 7, -12
 256              		.cfi_offset 8, -8
 257              		.cfi_offset 9, -4
 258              		.loc 1 325 0
 259 000a 09B1     		cbz	r1, .L20
 260              		.loc 1 326 0
 261 000c 42F48072 		orr	r2, r2, #256
 262              	.LVL13:
 263              	.L20:
 264              		.loc 1 328 0
 265 0010 C468     		ldr	r4, [r0, #12]
 266              		.loc 1 333 0
 267 0012 C56A     		ldr	r5, [r0, #44]
 268              		.loc 1 334 0
 269 0014 5E88     		ldrh	r6, [r3, #2]
 270              		.loc 1 333 0
 271 0016 2968     		ldr	r1, [r5, #0]
 272 0018 8768     		ldr	r7, [r0, #8]
 273              		.loc 1 349 0
 274 001a D3F80CC0 		ldr	ip, [r3, #12]
 275              		.loc 1 333 0
 276 001e CF60     		str	r7, [r1, #12]
 277              		.loc 1 328 0
 278 0020 012C     		cmp	r4, #1
 279              		.loc 1 331 0
 280 0022 88BF     		it	hi
 281 0024 42F00802 		orrhi	r2, r2, #8
 282              	.LVL14:
ARM GAS  /tmp/ccSwRXu6.s 			page 6


 283              		.loc 1 334 0
 284 0028 04FB06F4 		mul	r4, r4, r6
 285 002c 4C60     		str	r4, [r1, #4]
 286              		.loc 1 336 0
 287 002e 0A60     		str	r2, [r1, #0]
 288              		.loc 1 337 0
 289 0030 D1F80090 		ldr	r9, [r1, #0]
 290              		.loc 1 341 0
 291 0034 D3F81480 		ldr	r8, [r3, #20]
 292              		.loc 1 342 0
 293 0038 9F69     		ldr	r7, [r3, #24]
 294              		.loc 1 343 0
 295 003a DE69     		ldr	r6, [r3, #28]
 296              		.loc 1 344 0
 297 003c 1D6A     		ldr	r5, [r3, #32]
 298              		.loc 1 345 0
 299 003e 5C6A     		ldr	r4, [r3, #36]
 300              		.loc 1 350 0
 301 0040 1B69     		ldr	r3, [r3, #16]
 302              	.LVL15:
 303              		.loc 1 340 0
 304 0042 826A     		ldr	r2, [r0, #40]
 305              	.LVL16:
 306              		.loc 1 337 0
 307 0044 49F00109 		orr	r9, r9, #1
 308 0048 C1F80090 		str	r9, [r1, #0]
 309              		.loc 1 349 0
 310 004c 4CF08060 		orr	r0, ip, #67108864
 311              	.LVL17:
 312              		.loc 1 340 0
 313 0050 0021     		movs	r1, #0
 314              	.LVL18:
 315              		.loc 1 350 0
 316 0052 13F0804F 		tst	r3, #1073741824
 317              		.loc 1 352 0
 318 0056 43F44073 		orr	r3, r3, #768
 319              		.loc 1 349 0
 320 005a 40F48070 		orr	r0, r0, #256
 321              		.loc 1 352 0
 322 005e 14BF     		ite	ne
 323 0060 43F00303 		orrne	r3, r3, #3
 324              		.loc 1 355 0
 325 0064 43F00103 		orreq	r3, r3, #1
 326              		.loc 1 340 0
 327 0068 1160     		str	r1, [r2, #0]
 328              		.loc 1 341 0
 329 006a C2F80C80 		str	r8, [r2, #12]
 330              		.loc 1 342 0
 331 006e 1761     		str	r7, [r2, #16]
 332              		.loc 1 343 0
 333 0070 D662     		str	r6, [r2, #44]
 334              		.loc 1 344 0
 335 0072 1563     		str	r5, [r2, #48]
 336              		.loc 1 345 0
 337 0074 5463     		str	r4, [r2, #52]
 338              		.loc 1 349 0
 339 0076 5060     		str	r0, [r2, #4]
ARM GAS  /tmp/ccSwRXu6.s 			page 7


 340              		.loc 1 354 0
 341 0078 9360     		str	r3, [r2, #8]
 342              		.loc 1 356 0
 343 007a BDE8F003 		pop	{r4, r5, r6, r7, r8, r9}
 344 007e 7047     		bx	lr
 345              		.cfi_endproc
 346              	.LFE123:
 347              		.size	adc_lld_start_conversion, .-adc_lld_start_conversion
 348              		.section	.text.adc_lld_stop_conversion,"ax",%progbits
 349              		.align	2
 350              		.p2align 4,,15
 351              		.global	adc_lld_stop_conversion
 352              		.thumb
 353              		.thumb_func
 354              		.type	adc_lld_stop_conversion, %function
 355              	adc_lld_stop_conversion:
 356              	.LFB124:
 357              		.loc 1 365 0
 358              		.cfi_startproc
 359              		@ args = 0, pretend = 0, frame = 0
 360              		@ frame_needed = 0, uses_anonymous_args = 0
 361              		@ link register save eliminated.
 362              	.LVL19:
 363              		.loc 1 367 0
 364 0000 C16A     		ldr	r1, [r0, #44]
 365 0002 0A68     		ldr	r2, [r1, #0]
 366 0004 1368     		ldr	r3, [r2, #0]
 367              		.loc 1 365 0
 368 0006 10B4     		push	{r4}
 369              	.LCFI4:
 370              		.cfi_def_cfa_offset 4
 371              		.cfi_offset 4, -4
 372              		.loc 1 367 0
 373 0008 23F01F04 		bic	r4, r3, #31
 374 000c 1460     		str	r4, [r2, #0]
 375              	.L28:
 376              		.loc 1 367 0 is_stmt 0 discriminator 1
 377 000e 1368     		ldr	r3, [r2, #0]
 378 0010 13F00103 		ands	r3, r3, #1
 379 0014 FBD1     		bne	.L28
 380              		.loc 1 367 0 discriminator 2
 381 0016 0C7A     		ldrb	r4, [r1, #8]	@ zero_extendqisi2
 382              		.loc 1 368 0 is_stmt 1 discriminator 2
 383 0018 826A     		ldr	r2, [r0, #40]
 384              		.loc 1 367 0 discriminator 2
 385 001a 4968     		ldr	r1, [r1, #4]
 386 001c 3D20     		movs	r0, #61
 387              	.LVL20:
 388 001e 00FA04F0 		lsl	r0, r0, r4
 389 0022 0860     		str	r0, [r1, #0]
 390              		.loc 1 368 0 discriminator 2
 391 0024 5360     		str	r3, [r2, #4]
 392              		.loc 1 369 0 discriminator 2
 393 0026 9360     		str	r3, [r2, #8]
 394              		.loc 1 370 0 discriminator 2
 395 0028 0123     		movs	r3, #1
 396 002a 9360     		str	r3, [r2, #8]
ARM GAS  /tmp/ccSwRXu6.s 			page 8


 397              		.loc 1 371 0 discriminator 2
 398 002c 10BC     		pop	{r4}
 399 002e 7047     		bx	lr
 400              		.cfi_endproc
 401              	.LFE124:
 402              		.size	adc_lld_stop_conversion, .-adc_lld_stop_conversion
 403              		.section	.text.adc_lld_serve_rx_interrupt,"ax",%progbits
 404              		.align	2
 405              		.p2align 4,,15
 406              		.thumb
 407              		.thumb_func
 408              		.type	adc_lld_serve_rx_interrupt, %function
 409              	adc_lld_serve_rx_interrupt:
 410              	.LFB118:
 411              		.loc 1 76 0
 412              		.cfi_startproc
 413              		@ args = 0, pretend = 0, frame = 0
 414              		@ frame_needed = 0, uses_anonymous_args = 0
 415              	.LVL21:
 416              		.loc 1 79 0
 417 0000 11F00C0F 		tst	r1, #12
 418              		.loc 1 76 0
 419 0004 38B5     		push	{r3, r4, r5, lr}
 420              	.LCFI5:
 421              		.cfi_def_cfa_offset 16
 422              		.cfi_offset 3, -16
 423              		.cfi_offset 4, -12
 424              		.cfi_offset 5, -8
 425              		.cfi_offset 14, -4
 426              		.loc 1 76 0
 427 0006 0D46     		mov	r5, r1
 428 0008 0446     		mov	r4, r0
 429              		.loc 1 79 0
 430 000a 20D1     		bne	.L65
 431              		.loc 1 87 0
 432 000c 0369     		ldr	r3, [r0, #16]
 433 000e 002B     		cmp	r3, #0
 434 0010 3DD0     		beq	.L30
 435              		.loc 1 88 0
 436 0012 CA06     		lsls	r2, r1, #27
 437 0014 05D5     		bpl	.L38
 438              		.loc 1 90 0
 439 0016 5B68     		ldr	r3, [r3, #4]
 440 0018 1BB1     		cbz	r3, .L38
 441              		.loc 1 90 0 is_stmt 0 discriminator 1
 442 001a C268     		ldr	r2, [r0, #12]
 443 001c 8168     		ldr	r1, [r0, #8]
 444              	.LVL22:
 445 001e 5208     		lsrs	r2, r2, #1
 446 0020 9847     		blx	r3
 447              	.LVL23:
 448              	.L38:
 449              		.loc 1 92 0 is_stmt 1
 450 0022 AB06     		lsls	r3, r5, #26
 451 0024 33D5     		bpl	.L30
 452              		.loc 1 94 0
 453 0026 2069     		ldr	r0, [r4, #16]
ARM GAS  /tmp/ccSwRXu6.s 			page 9


 454 0028 0178     		ldrb	r1, [r0, #0]	@ zero_extendqisi2
 455 002a 0029     		cmp	r1, #0
 456 002c 34D0     		beq	.L40
 457              		.loc 1 94 0 is_stmt 0 discriminator 1
 458 002e 4568     		ldr	r5, [r0, #4]
 459              	.LVL24:
 460 0030 002D     		cmp	r5, #0
 461 0032 2CD0     		beq	.L30
 462              		.loc 1 94 0 discriminator 3
 463 0034 E268     		ldr	r2, [r4, #12]
 464 0036 012A     		cmp	r2, #1
 465 0038 2AD9     		bls	.L41
 466              	.LBB3:
 467              		.loc 1 94 0 discriminator 4
 468 003a 4088     		ldrh	r0, [r0, #2]
 469 003c A368     		ldr	r3, [r4, #8]
 470 003e 5208     		lsrs	r2, r2, #1
 471              	.LVL25:
 472 0040 00FB02F1 		mul	r1, r0, r2
 473 0044 03EB4101 		add	r1, r3, r1, lsl #1
 474 0048 2046     		mov	r0, r4
 475 004a A847     		blx	r5
 476              	.LVL26:
 477 004c 38BD     		pop	{r3, r4, r5, pc}
 478              	.LVL27:
 479              	.L65:
 480              	.LBE3:
 481              		.loc 1 82 0 is_stmt 1
 482 004e FFF7FEFF 		bl	adc_lld_stop_conversion
 483              	.LVL28:
 484 0052 2269     		ldr	r2, [r4, #16]
 485 0054 9368     		ldr	r3, [r2, #8]
 486 0056 4BB1     		cbz	r3, .L33
 487              		.loc 1 82 0 is_stmt 0 discriminator 1
 488 0058 0520     		movs	r0, #5
 489 005a 0021     		movs	r1, #0
 490 005c 2070     		strb	r0, [r4, #0]
 491 005e 2046     		mov	r0, r4
 492 0060 9847     		blx	r3
 493              	.LVL29:
 494 0062 2178     		ldrb	r1, [r4, #0]	@ zero_extendqisi2
 495 0064 0529     		cmp	r1, #5
 496 0066 01D1     		bne	.L33
 497              		.loc 1 82 0 discriminator 3
 498 0068 0222     		movs	r2, #2
 499 006a 2270     		strb	r2, [r4, #0]
 500              	.L33:
 501              		.loc 1 82 0 discriminator 2
 502 006c 0020     		movs	r0, #0
 503 006e 2061     		str	r0, [r4, #16]
 504              	.LBB4:
 505 0070 2023     		movs	r3, #32
 506              	.LVL30:
 507              	@ 82 "./ChibiOS/os/hal/platforms/STM32F4xx/adc_lld.c" 1
 508 0072 83F31188 		msr     BASEPRI, r3
 509              	@ 0 "" 2
 510              	.LVL31:
ARM GAS  /tmp/ccSwRXu6.s 			page 10


 511              		.thumb
 512              	.LBE4:
 513 0076 6369     		ldr	r3, [r4, #20]
 514              	.LVL32:
 515 0078 33B1     		cbz	r3, .L46
 516              	.LVL33:
 517              	.LBB5:
 518              		.loc 1 82 0 discriminator 4
 519 007a 4FF0FF31 		mov	r1, #-1
 520 007e 6061     		str	r0, [r4, #20]
 521 0080 1846     		mov	r0, r3
 522 0082 5962     		str	r1, [r3, #36]
 523 0084 FFF7FEFF 		bl	chSchReadyI
 524              	.LVL34:
 525              	.L46:
 526              	.LBE5:
 527              	.LBB6:
 528              		.loc 1 94 0 is_stmt 1 discriminator 14
 529 0088 0023     		movs	r3, #0
 530              	.LVL35:
 531              	@ 94 "./ChibiOS/os/hal/platforms/STM32F4xx/adc_lld.c" 1
 532 008a 83F31188 		msr     BASEPRI, r3
 533              	@ 0 "" 2
 534              	.LVL36:
 535              		.thumb
 536              	.L30:
 537 008e 38BD     		pop	{r3, r4, r5, pc}
 538              	.LVL37:
 539              	.L41:
 540              	.LBE6:
 541              		.loc 1 94 0 is_stmt 0 discriminator 5
 542 0090 2046     		mov	r0, r4
 543 0092 A168     		ldr	r1, [r4, #8]
 544 0094 A847     		blx	r5
 545              	.LVL38:
 546 0096 38BD     		pop	{r3, r4, r5, pc}
 547              	.LVL39:
 548              	.L40:
 549              		.loc 1 94 0 discriminator 2
 550 0098 2046     		mov	r0, r4
 551 009a FFF7FEFF 		bl	adc_lld_stop_conversion
 552              	.LVL40:
 553 009e 2169     		ldr	r1, [r4, #16]
 554 00a0 4B68     		ldr	r3, [r1, #4]
 555 00a2 33B3     		cbz	r3, .L42
 556              		.loc 1 94 0 discriminator 6
 557 00a4 E268     		ldr	r2, [r4, #12]
 558 00a6 0420     		movs	r0, #4
 559 00a8 012A     		cmp	r2, #1
 560 00aa 2070     		strb	r0, [r4, #0]
 561 00ac 1DD9     		bls	.L43
 562              	.LBB7:
 563              		.loc 1 94 0 discriminator 8
 564 00ae 4D88     		ldrh	r5, [r1, #2]
 565              	.LVL41:
 566 00b0 A168     		ldr	r1, [r4, #8]
 567 00b2 5208     		lsrs	r2, r2, #1
ARM GAS  /tmp/ccSwRXu6.s 			page 11


 568              	.LVL42:
 569 00b4 05FB02F5 		mul	r5, r5, r2
 570 00b8 2046     		mov	r0, r4
 571 00ba 01EB4501 		add	r1, r1, r5, lsl #1
 572 00be 9847     		blx	r3
 573              	.LVL43:
 574              	.L44:
 575              	.LBE7:
 576              		.loc 1 94 0 discriminator 10
 577 00c0 2378     		ldrb	r3, [r4, #0]	@ zero_extendqisi2
 578 00c2 042B     		cmp	r3, #4
 579 00c4 0CD0     		beq	.L66
 580              	.L45:
 581              	.LBB8:
 582              		.loc 1 94 0 discriminator 12
 583 00c6 2023     		movs	r3, #32
 584              	@ 94 "./ChibiOS/os/hal/platforms/STM32F4xx/adc_lld.c" 1
 585 00c8 83F31188 		msr     BASEPRI, r3
 586              	@ 0 "" 2
 587              	.LVL44:
 588              		.thumb
 589              	.LBE8:
 590 00cc 6169     		ldr	r1, [r4, #20]
 591 00ce 0029     		cmp	r1, #0
 592 00d0 DAD0     		beq	.L46
 593              	.LVL45:
 594              	.LBB9:
 595              		.loc 1 94 0 discriminator 13
 596 00d2 0023     		movs	r3, #0
 597              	.LVL46:
 598 00d4 6361     		str	r3, [r4, #20]
 599 00d6 0846     		mov	r0, r1
 600 00d8 4B62     		str	r3, [r1, #36]
 601 00da FFF7FEFF 		bl	chSchReadyI
 602              	.LVL47:
 603 00de D3E7     		b	.L46
 604              	.L66:
 605              	.LBE9:
 606              		.loc 1 94 0 discriminator 11
 607 00e0 0222     		movs	r2, #2
 608 00e2 0020     		movs	r0, #0
 609 00e4 2270     		strb	r2, [r4, #0]
 610 00e6 2061     		str	r0, [r4, #16]
 611 00e8 EDE7     		b	.L45
 612              	.LVL48:
 613              	.L43:
 614              		.loc 1 94 0 discriminator 9
 615 00ea 2046     		mov	r0, r4
 616 00ec A168     		ldr	r1, [r4, #8]
 617 00ee 9847     		blx	r3
 618              	.LVL49:
 619 00f0 E6E7     		b	.L44
 620              	.L42:
 621              		.loc 1 94 0 discriminator 7
 622 00f2 0222     		movs	r2, #2
 623 00f4 2270     		strb	r2, [r4, #0]
 624 00f6 2361     		str	r3, [r4, #16]
ARM GAS  /tmp/ccSwRXu6.s 			page 12


 625 00f8 E5E7     		b	.L45
 626              		.cfi_endproc
 627              	.LFE118:
 628              		.size	adc_lld_serve_rx_interrupt, .-adc_lld_serve_rx_interrupt
 629 00fa 00BFAFF3 		.section	.text.Vector88,"ax",%progbits
 629      0080
 630              		.align	2
 631              		.p2align 4,,15
 632              		.global	Vector88
 633              		.thumb
 634              		.thumb_func
 635              		.type	Vector88, %function
 636              	Vector88:
 637              	.LFB119:
 638              		.loc 1 111 0 is_stmt 1
 639              		.cfi_startproc
 640              		@ args = 0, pretend = 0, frame = 0
 641              		@ frame_needed = 0, uses_anonymous_args = 0
 642              		.loc 1 117 0
 643 0000 4FF40053 		mov	r3, #8192
 644 0004 C4F20103 		movt	r3, 16385
 645              		.loc 1 118 0
 646 0008 0021     		movs	r1, #0
 647              		.loc 1 117 0
 648 000a 1A68     		ldr	r2, [r3, #0]
 649              	.LVL50:
 650              		.loc 1 111 0
 651 000c 10B5     		push	{r4, lr}
 652              	.LCFI6:
 653              		.cfi_def_cfa_offset 8
 654              		.cfi_offset 4, -8
 655              		.cfi_offset 14, -4
 656              		.loc 1 118 0
 657 000e 1960     		str	r1, [r3, #0]
 658              		.loc 1 121 0
 659 0010 9106     		lsls	r1, r2, #26
 660 0012 25D5     		bpl	.L68
 661              		.loc 1 121 0 is_stmt 0 discriminator 1
 662 0014 164C     		ldr	r4, .L86
 663 0016 E06A     		ldr	r0, [r4, #44]
 664 0018 0368     		ldr	r3, [r0, #0]
 665 001a 5A68     		ldr	r2, [r3, #4]
 666              	.LVL51:
 667 001c 02B3     		cbz	r2, .L68
 668              		.loc 1 124 0 is_stmt 1
 669 001e 2169     		ldr	r1, [r4, #16]
 670 0020 F1B1     		cbz	r1, .L68
 671              		.loc 1 125 0
 672 0022 2046     		mov	r0, r4
 673 0024 FFF7FEFF 		bl	adc_lld_stop_conversion
 674              	.LVL52:
 675 0028 2069     		ldr	r0, [r4, #16]
 676 002a 8368     		ldr	r3, [r0, #8]
 677 002c 3BB1     		cbz	r3, .L70
 678              		.loc 1 125 0 is_stmt 0 discriminator 1
 679 002e 0522     		movs	r2, #5
 680 0030 0121     		movs	r1, #1
ARM GAS  /tmp/ccSwRXu6.s 			page 13


 681 0032 2270     		strb	r2, [r4, #0]
 682 0034 2046     		mov	r0, r4
 683 0036 9847     		blx	r3
 684              	.LVL53:
 685 0038 2178     		ldrb	r1, [r4, #0]	@ zero_extendqisi2
 686 003a 0529     		cmp	r1, #5
 687 003c 14D0     		beq	.L85
 688              	.L70:
 689              		.loc 1 125 0 discriminator 2
 690 003e 0022     		movs	r2, #0
 691 0040 2261     		str	r2, [r4, #16]
 692              	.LBB10:
 693 0042 2023     		movs	r3, #32
 694              	.LVL54:
 695              	@ 125 "./ChibiOS/os/hal/platforms/STM32F4xx/adc_lld.c" 1
 696 0044 83F31188 		msr     BASEPRI, r3
 697              	@ 0 "" 2
 698              	.LVL55:
 699              		.thumb
 700              	.LBE10:
 701 0048 6069     		ldr	r0, [r4, #20]
 702 004a 30B1     		cbz	r0, .L72
 703              	.LVL56:
 704              	.LBB11:
 705              		.loc 1 125 0 discriminator 4
 706 004c 4FF0FF33 		mov	r3, #-1
 707              	.LVL57:
 708 0050 0749     		ldr	r1, .L86
 709 0052 4362     		str	r3, [r0, #36]
 710 0054 4A61     		str	r2, [r1, #20]
 711 0056 FFF7FEFF 		bl	chSchReadyI
 712              	.LVL58:
 713              	.L72:
 714              	.LBE11:
 715              	.LBB12:
 716              		.loc 1 125 0 discriminator 5
 717 005a 0023     		movs	r3, #0
 718              	.LVL59:
 719              	@ 125 "./ChibiOS/os/hal/platforms/STM32F4xx/adc_lld.c" 1
 720 005c 83F31188 		msr     BASEPRI, r3
 721              	@ 0 "" 2
 722              	.LVL60:
 723              		.thumb
 724              	.L68:
 725              	.LBE12:
 726              		.loc 1 159 0 is_stmt 1
 727 0060 BDE81040 		pop	{r4, lr}
 728              		.loc 1 158 0
 729 0064 FFF7FEBF 		b	_port_irq_epilogue
 730              	.LVL61:
 731              	.L85:
 732              		.loc 1 125 0 discriminator 3
 733 0068 0220     		movs	r0, #2
 734 006a 2070     		strb	r0, [r4, #0]
 735 006c E7E7     		b	.L70
 736              	.L87:
 737 006e 00BF     		.align	2
ARM GAS  /tmp/ccSwRXu6.s 			page 14


 738              	.L86:
 739 0070 00000000 		.word	.LANCHOR0
 740              		.cfi_endproc
 741              	.LFE119:
 742              		.size	Vector88, .-Vector88
 743 0074 AFF30080 		.section	.text.adcSTM32EnableTSVREFE,"ax",%progbits
 743      AFF30080 
 743      AFF30080 
 744              		.align	2
 745              		.p2align 4,,15
 746              		.global	adcSTM32EnableTSVREFE
 747              		.thumb
 748              		.thumb_func
 749              		.type	adcSTM32EnableTSVREFE, %function
 750              	adcSTM32EnableTSVREFE:
 751              	.LFB125:
 752              		.loc 1 379 0
 753              		.cfi_startproc
 754              		@ args = 0, pretend = 0, frame = 0
 755              		@ frame_needed = 0, uses_anonymous_args = 0
 756              		@ link register save eliminated.
 757              		.loc 1 381 0
 758 0000 4FF40C53 		mov	r3, #8960
 759 0004 C4F20103 		movt	r3, 16385
 760 0008 5A68     		ldr	r2, [r3, #4]
 761 000a 42F40000 		orr	r0, r2, #8388608
 762 000e 5860     		str	r0, [r3, #4]
 763 0010 7047     		bx	lr
 764              		.cfi_endproc
 765              	.LFE125:
 766              		.size	adcSTM32EnableTSVREFE, .-adcSTM32EnableTSVREFE
 767 0012 00BFAFF3 		.section	.text.adcSTM32DisableTSVREFE,"ax",%progbits
 767      0080AFF3 
 767      0080AFF3 
 767      0080
 768              		.align	2
 769              		.p2align 4,,15
 770              		.global	adcSTM32DisableTSVREFE
 771              		.thumb
 772              		.thumb_func
 773              		.type	adcSTM32DisableTSVREFE, %function
 774              	adcSTM32DisableTSVREFE:
 775              	.LFB126:
 776              		.loc 1 390 0
 777              		.cfi_startproc
 778              		@ args = 0, pretend = 0, frame = 0
 779              		@ frame_needed = 0, uses_anonymous_args = 0
 780              		@ link register save eliminated.
 781              		.loc 1 392 0
 782 0000 4FF40C53 		mov	r3, #8960
 783 0004 C4F20103 		movt	r3, 16385
 784 0008 5A68     		ldr	r2, [r3, #4]
 785 000a 22F40000 		bic	r0, r2, #8388608
 786 000e 5860     		str	r0, [r3, #4]
 787 0010 7047     		bx	lr
 788              		.cfi_endproc
 789              	.LFE126:
ARM GAS  /tmp/ccSwRXu6.s 			page 15


 790              		.size	adcSTM32DisableTSVREFE, .-adcSTM32DisableTSVREFE
 791 0012 00BFAFF3 		.section	.text.adcSTM32EnableVBATE,"ax",%progbits
 791      0080AFF3 
 791      0080AFF3 
 791      0080
 792              		.align	2
 793              		.p2align 4,,15
 794              		.global	adcSTM32EnableVBATE
 795              		.thumb
 796              		.thumb_func
 797              		.type	adcSTM32EnableVBATE, %function
 798              	adcSTM32EnableVBATE:
 799              	.LFB127:
 800              		.loc 1 401 0
 801              		.cfi_startproc
 802              		@ args = 0, pretend = 0, frame = 0
 803              		@ frame_needed = 0, uses_anonymous_args = 0
 804              		@ link register save eliminated.
 805              		.loc 1 403 0
 806 0000 4FF40C53 		mov	r3, #8960
 807 0004 C4F20103 		movt	r3, 16385
 808 0008 5A68     		ldr	r2, [r3, #4]
 809 000a 42F48000 		orr	r0, r2, #4194304
 810 000e 5860     		str	r0, [r3, #4]
 811 0010 7047     		bx	lr
 812              		.cfi_endproc
 813              	.LFE127:
 814              		.size	adcSTM32EnableVBATE, .-adcSTM32EnableVBATE
 815 0012 00BFAFF3 		.section	.text.adcSTM32DisableVBATE,"ax",%progbits
 815      0080AFF3 
 815      0080AFF3 
 815      0080
 816              		.align	2
 817              		.p2align 4,,15
 818              		.global	adcSTM32DisableVBATE
 819              		.thumb
 820              		.thumb_func
 821              		.type	adcSTM32DisableVBATE, %function
 822              	adcSTM32DisableVBATE:
 823              	.LFB128:
 824              		.loc 1 412 0
 825              		.cfi_startproc
 826              		@ args = 0, pretend = 0, frame = 0
 827              		@ frame_needed = 0, uses_anonymous_args = 0
 828              		@ link register save eliminated.
 829              		.loc 1 414 0
 830 0000 4FF40C53 		mov	r3, #8960
 831 0004 C4F20103 		movt	r3, 16385
 832 0008 5A68     		ldr	r2, [r3, #4]
 833 000a 22F48000 		bic	r0, r2, #4194304
 834 000e 5860     		str	r0, [r3, #4]
 835 0010 7047     		bx	lr
 836              		.cfi_endproc
 837              	.LFE128:
 838              		.size	adcSTM32DisableVBATE, .-adcSTM32DisableVBATE
 839              		.global	ADCD1
 840 0012 00BFAFF3 		.section	.bss.ADCD1,"aw",%nobits
ARM GAS  /tmp/ccSwRXu6.s 			page 16


 840      0080AFF3 
 840      0080AFF3 
 840      0080
 841              		.align	2
 842              		.set	.LANCHOR0,. + 0
 843              		.type	ADCD1, %object
 844              		.size	ADCD1, 52
 845              	ADCD1:
 846 0000 00000000 		.space	52
 846      00000000 
 846      00000000 
 846      00000000 
 846      00000000 
 847              		.text
 848              	.Letext0:
 849              		.file 2 "/usr/bin/../lib/gcc/arm-none-eabi/4.7.3/include/stddef.h"
 850              		.file 3 "/usr/bin/../lib/gcc/arm-none-eabi/4.7.3/../../../../arm-none-eabi/include/stdint.h"
 851              		.file 4 "./ChibiOS/os/ports/GCC/ARMCMx/chtypes.h"
 852              		.file 5 "./ChibiOS/os/kernel/include/chlists.h"
 853              		.file 6 "./ChibiOS/os/kernel/include/chthreads.h"
 854              		.file 7 "./ChibiOS/os/ports/GCC/ARMCMx/chcore_v7m.h"
 855              		.file 8 "./ChibiOS/os/kernel/include/chmtx.h"
 856              		.file 9 "./ChibiOS/os/hal/platforms/STM32F4xx/stm32f4xx.h"
 857              		.file 10 "./ChibiOS/os/hal/platforms/STM32F4xx/stm32_dma.h"
 858              		.file 11 "./ChibiOS/os/hal/include/adc.h"
 859              		.file 12 "./ChibiOS/os/hal/platforms/STM32F4xx/adc_lld.h"
 860              		.file 13 "./ChibiOS/os/ports/common/ARMCMx/CMSIS/include/core_cm4.h"
 861              		.file 14 "./ChibiOS/os/ports/common/ARMCMx/nvic.h"
 862              		.file 15 "./ChibiOS/os/kernel/include/chschd.h"
 863              		.section	.debug_info,"",%progbits
 864              	.Ldebug_info0:
 865 0000 F8110000 		.4byte	0x11f8
 866 0004 0200     		.2byte	0x2
 867 0006 00000000 		.4byte	.Ldebug_abbrev0
 868 000a 04       		.byte	0x4
 869 000b 01       		.uleb128 0x1
 870 000c FB020000 		.4byte	.LASF263
 871 0010 01       		.byte	0x1
 872 0011 7B060000 		.4byte	.LASF264
 873 0015 01070000 		.4byte	.LASF265
 874 0019 00000000 		.4byte	.Ldebug_ranges0+0
 875 001d 00000000 		.4byte	0
 876 0021 00000000 		.4byte	0
 877 0025 00000000 		.4byte	.Ldebug_line0
 878 0029 02       		.uleb128 0x2
 879 002a 04       		.byte	0x4
 880 002b 05       		.byte	0x5
 881 002c 696E7400 		.ascii	"int\000"
 882 0030 03       		.uleb128 0x3
 883 0031 05000000 		.4byte	.LASF2
 884 0035 02       		.byte	0x2
 885 0036 D5       		.byte	0xd5
 886 0037 3B000000 		.4byte	0x3b
 887 003b 04       		.uleb128 0x4
 888 003c 04       		.byte	0x4
 889 003d 07       		.byte	0x7
 890 003e 64070000 		.4byte	.LASF0
ARM GAS  /tmp/ccSwRXu6.s 			page 17


 891 0042 04       		.uleb128 0x4
 892 0043 01       		.byte	0x1
 893 0044 06       		.byte	0x6
 894 0045 65020000 		.4byte	.LASF1
 895 0049 03       		.uleb128 0x3
 896 004a 7B020000 		.4byte	.LASF3
 897 004e 03       		.byte	0x3
 898 004f 2A       		.byte	0x2a
 899 0050 54000000 		.4byte	0x54
 900 0054 04       		.uleb128 0x4
 901 0055 01       		.byte	0x1
 902 0056 08       		.byte	0x8
 903 0057 BD020000 		.4byte	.LASF4
 904 005b 04       		.uleb128 0x4
 905 005c 02       		.byte	0x2
 906 005d 05       		.byte	0x5
 907 005e 640A0000 		.4byte	.LASF5
 908 0062 03       		.uleb128 0x3
 909 0063 07090000 		.4byte	.LASF6
 910 0067 03       		.byte	0x3
 911 0068 36       		.byte	0x36
 912 0069 6D000000 		.4byte	0x6d
 913 006d 04       		.uleb128 0x4
 914 006e 02       		.byte	0x2
 915 006f 07       		.byte	0x7
 916 0070 940B0000 		.4byte	.LASF7
 917 0074 03       		.uleb128 0x3
 918 0075 8B000000 		.4byte	.LASF8
 919 0079 03       		.byte	0x3
 920 007a 4F       		.byte	0x4f
 921 007b 7F000000 		.4byte	0x7f
 922 007f 04       		.uleb128 0x4
 923 0080 04       		.byte	0x4
 924 0081 05       		.byte	0x5
 925 0082 A9010000 		.4byte	.LASF9
 926 0086 03       		.uleb128 0x3
 927 0087 360B0000 		.4byte	.LASF10
 928 008b 03       		.byte	0x3
 929 008c 50       		.byte	0x50
 930 008d 91000000 		.4byte	0x91
 931 0091 04       		.uleb128 0x4
 932 0092 04       		.byte	0x4
 933 0093 07       		.byte	0x7
 934 0094 12050000 		.4byte	.LASF11
 935 0098 04       		.uleb128 0x4
 936 0099 08       		.byte	0x8
 937 009a 05       		.byte	0x5
 938 009b 41060000 		.4byte	.LASF12
 939 009f 04       		.uleb128 0x4
 940 00a0 08       		.byte	0x8
 941 00a1 07       		.byte	0x7
 942 00a2 E8080000 		.4byte	.LASF13
 943 00a6 03       		.uleb128 0x3
 944 00a7 A60A0000 		.4byte	.LASF14
 945 00ab 04       		.byte	0x4
 946 00ac 24       		.byte	0x24
 947 00ad B1000000 		.4byte	0xb1
ARM GAS  /tmp/ccSwRXu6.s 			page 18


 948 00b1 04       		.uleb128 0x4
 949 00b2 01       		.byte	0x1
 950 00b3 02       		.byte	0x2
 951 00b4 7F030000 		.4byte	.LASF15
 952 00b8 03       		.uleb128 0x3
 953 00b9 D3090000 		.4byte	.LASF16
 954 00bd 04       		.byte	0x4
 955 00be 25       		.byte	0x25
 956 00bf 49000000 		.4byte	0x49
 957 00c3 03       		.uleb128 0x3
 958 00c4 DA010000 		.4byte	.LASF17
 959 00c8 04       		.byte	0x4
 960 00c9 26       		.byte	0x26
 961 00ca 49000000 		.4byte	0x49
 962 00ce 03       		.uleb128 0x3
 963 00cf F60A0000 		.4byte	.LASF18
 964 00d3 04       		.byte	0x4
 965 00d4 27       		.byte	0x27
 966 00d5 49000000 		.4byte	0x49
 967 00d9 03       		.uleb128 0x3
 968 00da 2C090000 		.4byte	.LASF19
 969 00de 04       		.byte	0x4
 970 00df 28       		.byte	0x28
 971 00e0 49000000 		.4byte	0x49
 972 00e4 03       		.uleb128 0x3
 973 00e5 5B000000 		.4byte	.LASF20
 974 00e9 04       		.byte	0x4
 975 00ea 29       		.byte	0x29
 976 00eb 86000000 		.4byte	0x86
 977 00ef 03       		.uleb128 0x3
 978 00f0 10090000 		.4byte	.LASF21
 979 00f4 04       		.byte	0x4
 980 00f5 2A       		.byte	0x2a
 981 00f6 74000000 		.4byte	0x74
 982 00fa 03       		.uleb128 0x3
 983 00fb 83020000 		.4byte	.LASF22
 984 00ff 04       		.byte	0x4
 985 0100 2C       		.byte	0x2c
 986 0101 86000000 		.4byte	0x86
 987 0105 03       		.uleb128 0x3
 988 0106 40000000 		.4byte	.LASF23
 989 010a 04       		.byte	0x4
 990 010b 2E       		.byte	0x2e
 991 010c 86000000 		.4byte	0x86
 992 0110 03       		.uleb128 0x3
 993 0111 CA0A0000 		.4byte	.LASF24
 994 0115 05       		.byte	0x5
 995 0116 23       		.byte	0x23
 996 0117 1B010000 		.4byte	0x11b
 997 011b 05       		.uleb128 0x5
 998 011c CA0A0000 		.4byte	.LASF24
 999 0120 48       		.byte	0x48
 1000 0121 06       		.byte	0x6
 1001 0122 57       		.byte	0x57
 1002 0123 40020000 		.4byte	0x240
 1003 0127 06       		.uleb128 0x6
 1004 0128 B2010000 		.4byte	.LASF25
ARM GAS  /tmp/ccSwRXu6.s 			page 19


 1005 012c 06       		.byte	0x6
 1006 012d 58       		.byte	0x58
 1007 012e 65020000 		.4byte	0x265
 1008 0132 02       		.byte	0x2
 1009 0133 23       		.byte	0x23
 1010 0134 00       		.uleb128 0
 1011 0135 06       		.uleb128 0x6
 1012 0136 B9010000 		.4byte	.LASF26
 1013 013a 06       		.byte	0x6
 1014 013b 5A       		.byte	0x5a
 1015 013c 65020000 		.4byte	0x265
 1016 0140 02       		.byte	0x2
 1017 0141 23       		.byte	0x23
 1018 0142 04       		.uleb128 0x4
 1019 0143 06       		.uleb128 0x6
 1020 0144 CB030000 		.4byte	.LASF27
 1021 0148 06       		.byte	0x6
 1022 0149 5C       		.byte	0x5c
 1023 014a E4000000 		.4byte	0xe4
 1024 014e 02       		.byte	0x2
 1025 014f 23       		.byte	0x23
 1026 0150 08       		.uleb128 0x8
 1027 0151 06       		.uleb128 0x6
 1028 0152 55000000 		.4byte	.LASF28
 1029 0156 06       		.byte	0x6
 1030 0157 5D       		.byte	0x5d
 1031 0158 33030000 		.4byte	0x333
 1032 015c 02       		.byte	0x2
 1033 015d 23       		.byte	0x23
 1034 015e 0C       		.uleb128 0xc
 1035 015f 06       		.uleb128 0x6
 1036 0160 A1010000 		.4byte	.LASF29
 1037 0164 06       		.byte	0x6
 1038 0165 5F       		.byte	0x5f
 1039 0166 65020000 		.4byte	0x265
 1040 016a 02       		.byte	0x2
 1041 016b 23       		.byte	0x23
 1042 016c 10       		.uleb128 0x10
 1043 016d 06       		.uleb128 0x6
 1044 016e FF080000 		.4byte	.LASF30
 1045 0172 06       		.byte	0x6
 1046 0173 60       		.byte	0x60
 1047 0174 65020000 		.4byte	0x265
 1048 0178 02       		.byte	0x2
 1049 0179 23       		.byte	0x23
 1050 017a 14       		.uleb128 0x14
 1051 017b 06       		.uleb128 0x6
 1052 017c 1B0C0000 		.4byte	.LASF31
 1053 0180 06       		.byte	0x6
 1054 0181 67       		.byte	0x67
 1055 0182 E4030000 		.4byte	0x3e4
 1056 0186 02       		.byte	0x2
 1057 0187 23       		.byte	0x23
 1058 0188 18       		.uleb128 0x18
 1059 0189 06       		.uleb128 0x6
 1060 018a 6A0C0000 		.4byte	.LASF32
 1061 018e 06       		.byte	0x6
ARM GAS  /tmp/ccSwRXu6.s 			page 20


 1062 018f 72       		.byte	0x72
 1063 0190 C3000000 		.4byte	0xc3
 1064 0194 02       		.byte	0x2
 1065 0195 23       		.byte	0x23
 1066 0196 1C       		.uleb128 0x1c
 1067 0197 06       		.uleb128 0x6
 1068 0198 52070000 		.4byte	.LASF33
 1069 019c 06       		.byte	0x6
 1070 019d 76       		.byte	0x76
 1071 019e B8000000 		.4byte	0xb8
 1072 01a2 02       		.byte	0x2
 1073 01a3 23       		.byte	0x23
 1074 01a4 1D       		.uleb128 0x1d
 1075 01a5 06       		.uleb128 0x6
 1076 01a6 A7070000 		.4byte	.LASF34
 1077 01aa 06       		.byte	0x6
 1078 01ab 7B       		.byte	0x7b
 1079 01ac CE000000 		.4byte	0xce
 1080 01b0 02       		.byte	0x2
 1081 01b1 23       		.byte	0x23
 1082 01b2 1E       		.uleb128 0x1e
 1083 01b3 06       		.uleb128 0x6
 1084 01b4 71020000 		.4byte	.LASF35
 1085 01b8 06       		.byte	0x6
 1086 01b9 81       		.byte	0x81
 1087 01ba D9000000 		.4byte	0xd9
 1088 01be 02       		.byte	0x2
 1089 01bf 23       		.byte	0x23
 1090 01c0 1F       		.uleb128 0x1f
 1091 01c1 06       		.uleb128 0x6
 1092 01c2 4C080000 		.4byte	.LASF36
 1093 01c6 06       		.byte	0x6
 1094 01c7 88       		.byte	0x88
 1095 01c8 62030000 		.4byte	0x362
 1096 01cc 02       		.byte	0x2
 1097 01cd 23       		.byte	0x23
 1098 01ce 20       		.uleb128 0x20
 1099 01cf 07       		.uleb128 0x7
 1100 01d0 705F7500 		.ascii	"p_u\000"
 1101 01d4 06       		.byte	0x6
 1102 01d5 AD       		.byte	0xad
 1103 01d6 AF030000 		.4byte	0x3af
 1104 01da 02       		.byte	0x2
 1105 01db 23       		.byte	0x23
 1106 01dc 24       		.uleb128 0x24
 1107 01dd 06       		.uleb128 0x6
 1108 01de 37070000 		.4byte	.LASF37
 1109 01e2 06       		.byte	0x6
 1110 01e3 B2       		.byte	0xb2
 1111 01e4 8D020000 		.4byte	0x28d
 1112 01e8 02       		.byte	0x2
 1113 01e9 23       		.byte	0x23
 1114 01ea 28       		.uleb128 0x28
 1115 01eb 06       		.uleb128 0x6
 1116 01ec 80000000 		.4byte	.LASF38
 1117 01f0 06       		.byte	0x6
 1118 01f1 B8       		.byte	0xb8
ARM GAS  /tmp/ccSwRXu6.s 			page 21


 1119 01f2 6B020000 		.4byte	0x26b
 1120 01f6 02       		.byte	0x2
 1121 01f7 23       		.byte	0x23
 1122 01f8 2C       		.uleb128 0x2c
 1123 01f9 06       		.uleb128 0x6
 1124 01fa 5A0C0000 		.4byte	.LASF39
 1125 01fe 06       		.byte	0x6
 1126 01ff BC       		.byte	0xbc
 1127 0200 EF000000 		.4byte	0xef
 1128 0204 02       		.byte	0x2
 1129 0205 23       		.byte	0x23
 1130 0206 34       		.uleb128 0x34
 1131 0207 06       		.uleb128 0x6
 1132 0208 69040000 		.4byte	.LASF40
 1133 020c 06       		.byte	0x6
 1134 020d C2       		.byte	0xc2
 1135 020e FA000000 		.4byte	0xfa
 1136 0212 02       		.byte	0x2
 1137 0213 23       		.byte	0x23
 1138 0214 38       		.uleb128 0x38
 1139 0215 06       		.uleb128 0x6
 1140 0216 EC010000 		.4byte	.LASF41
 1141 021a 06       		.byte	0x6
 1142 021b C9       		.byte	0xc9
 1143 021c F6030000 		.4byte	0x3f6
 1144 0220 02       		.byte	0x2
 1145 0221 23       		.byte	0x23
 1146 0222 3C       		.uleb128 0x3c
 1147 0223 06       		.uleb128 0x6
 1148 0224 73080000 		.4byte	.LASF42
 1149 0228 06       		.byte	0x6
 1150 0229 CD       		.byte	0xcd
 1151 022a E4000000 		.4byte	0xe4
 1152 022e 02       		.byte	0x2
 1153 022f 23       		.byte	0x23
 1154 0230 40       		.uleb128 0x40
 1155 0231 06       		.uleb128 0x6
 1156 0232 92070000 		.4byte	.LASF43
 1157 0236 06       		.byte	0x6
 1158 0237 D3       		.byte	0xd3
 1159 0238 A3020000 		.4byte	0x2a3
 1160 023c 02       		.byte	0x2
 1161 023d 23       		.byte	0x23
 1162 023e 44       		.uleb128 0x44
 1163 023f 00       		.byte	0
 1164 0240 08       		.uleb128 0x8
 1165 0241 08       		.byte	0x8
 1166 0242 05       		.byte	0x5
 1167 0243 5A       		.byte	0x5a
 1168 0244 65020000 		.4byte	0x265
 1169 0248 06       		.uleb128 0x6
 1170 0249 B2010000 		.4byte	.LASF25
 1171 024d 05       		.byte	0x5
 1172 024e 5B       		.byte	0x5b
 1173 024f 65020000 		.4byte	0x265
 1174 0253 02       		.byte	0x2
 1175 0254 23       		.byte	0x23
ARM GAS  /tmp/ccSwRXu6.s 			page 22


 1176 0255 00       		.uleb128 0
 1177 0256 06       		.uleb128 0x6
 1178 0257 B9010000 		.4byte	.LASF26
 1179 025b 05       		.byte	0x5
 1180 025c 5D       		.byte	0x5d
 1181 025d 65020000 		.4byte	0x265
 1182 0261 02       		.byte	0x2
 1183 0262 23       		.byte	0x23
 1184 0263 04       		.uleb128 0x4
 1185 0264 00       		.byte	0
 1186 0265 09       		.uleb128 0x9
 1187 0266 04       		.byte	0x4
 1188 0267 10010000 		.4byte	0x110
 1189 026b 03       		.uleb128 0x3
 1190 026c 4D0B0000 		.4byte	.LASF44
 1191 0270 05       		.byte	0x5
 1192 0271 5F       		.byte	0x5f
 1193 0272 40020000 		.4byte	0x240
 1194 0276 08       		.uleb128 0x8
 1195 0277 04       		.byte	0x4
 1196 0278 05       		.byte	0x5
 1197 0279 64       		.byte	0x64
 1198 027a 8D020000 		.4byte	0x28d
 1199 027e 06       		.uleb128 0x6
 1200 027f B2010000 		.4byte	.LASF25
 1201 0283 05       		.byte	0x5
 1202 0284 66       		.byte	0x66
 1203 0285 65020000 		.4byte	0x265
 1204 0289 02       		.byte	0x2
 1205 028a 23       		.byte	0x23
 1206 028b 00       		.uleb128 0
 1207 028c 00       		.byte	0
 1208 028d 03       		.uleb128 0x3
 1209 028e CE070000 		.4byte	.LASF45
 1210 0292 05       		.byte	0x5
 1211 0293 69       		.byte	0x69
 1212 0294 76020000 		.4byte	0x276
 1213 0298 03       		.uleb128 0x3
 1214 0299 0E020000 		.4byte	.LASF46
 1215 029d 07       		.byte	0x7
 1216 029e DE       		.byte	0xde
 1217 029f A3020000 		.4byte	0x2a3
 1218 02a3 0A       		.uleb128 0xa
 1219 02a4 04       		.byte	0x4
 1220 02a5 0B       		.uleb128 0xb
 1221 02a6 62040000 		.4byte	.LASF47
 1222 02aa 24       		.byte	0x24
 1223 02ab 07       		.byte	0x7
 1224 02ac 0501     		.2byte	0x105
 1225 02ae 33030000 		.4byte	0x333
 1226 02b2 0C       		.uleb128 0xc
 1227 02b3 723400   		.ascii	"r4\000"
 1228 02b6 07       		.byte	0x7
 1229 02b7 1801     		.2byte	0x118
 1230 02b9 98020000 		.4byte	0x298
 1231 02bd 02       		.byte	0x2
 1232 02be 23       		.byte	0x23
ARM GAS  /tmp/ccSwRXu6.s 			page 23


 1233 02bf 00       		.uleb128 0
 1234 02c0 0C       		.uleb128 0xc
 1235 02c1 723500   		.ascii	"r5\000"
 1236 02c4 07       		.byte	0x7
 1237 02c5 1901     		.2byte	0x119
 1238 02c7 98020000 		.4byte	0x298
 1239 02cb 02       		.byte	0x2
 1240 02cc 23       		.byte	0x23
 1241 02cd 04       		.uleb128 0x4
 1242 02ce 0C       		.uleb128 0xc
 1243 02cf 723600   		.ascii	"r6\000"
 1244 02d2 07       		.byte	0x7
 1245 02d3 1A01     		.2byte	0x11a
 1246 02d5 98020000 		.4byte	0x298
 1247 02d9 02       		.byte	0x2
 1248 02da 23       		.byte	0x23
 1249 02db 08       		.uleb128 0x8
 1250 02dc 0C       		.uleb128 0xc
 1251 02dd 723700   		.ascii	"r7\000"
 1252 02e0 07       		.byte	0x7
 1253 02e1 1B01     		.2byte	0x11b
 1254 02e3 98020000 		.4byte	0x298
 1255 02e7 02       		.byte	0x2
 1256 02e8 23       		.byte	0x23
 1257 02e9 0C       		.uleb128 0xc
 1258 02ea 0C       		.uleb128 0xc
 1259 02eb 723800   		.ascii	"r8\000"
 1260 02ee 07       		.byte	0x7
 1261 02ef 1C01     		.2byte	0x11c
 1262 02f1 98020000 		.4byte	0x298
 1263 02f5 02       		.byte	0x2
 1264 02f6 23       		.byte	0x23
 1265 02f7 10       		.uleb128 0x10
 1266 02f8 0C       		.uleb128 0xc
 1267 02f9 723900   		.ascii	"r9\000"
 1268 02fc 07       		.byte	0x7
 1269 02fd 1D01     		.2byte	0x11d
 1270 02ff 98020000 		.4byte	0x298
 1271 0303 02       		.byte	0x2
 1272 0304 23       		.byte	0x23
 1273 0305 14       		.uleb128 0x14
 1274 0306 0C       		.uleb128 0xc
 1275 0307 72313000 		.ascii	"r10\000"
 1276 030b 07       		.byte	0x7
 1277 030c 1E01     		.2byte	0x11e
 1278 030e 98020000 		.4byte	0x298
 1279 0312 02       		.byte	0x2
 1280 0313 23       		.byte	0x23
 1281 0314 18       		.uleb128 0x18
 1282 0315 0C       		.uleb128 0xc
 1283 0316 72313100 		.ascii	"r11\000"
 1284 031a 07       		.byte	0x7
 1285 031b 1F01     		.2byte	0x11f
 1286 031d 98020000 		.4byte	0x298
 1287 0321 02       		.byte	0x2
 1288 0322 23       		.byte	0x23
 1289 0323 1C       		.uleb128 0x1c
ARM GAS  /tmp/ccSwRXu6.s 			page 24


 1290 0324 0C       		.uleb128 0xc
 1291 0325 6C7200   		.ascii	"lr\000"
 1292 0328 07       		.byte	0x7
 1293 0329 2001     		.2byte	0x120
 1294 032b 98020000 		.4byte	0x298
 1295 032f 02       		.byte	0x2
 1296 0330 23       		.byte	0x23
 1297 0331 20       		.uleb128 0x20
 1298 0332 00       		.byte	0
 1299 0333 0B       		.uleb128 0xb
 1300 0334 8F020000 		.4byte	.LASF48
 1301 0338 04       		.byte	0x4
 1302 0339 07       		.byte	0x7
 1303 033a 2A01     		.2byte	0x12a
 1304 033c 50030000 		.4byte	0x350
 1305 0340 0C       		.uleb128 0xc
 1306 0341 72313300 		.ascii	"r13\000"
 1307 0345 07       		.byte	0x7
 1308 0346 2B01     		.2byte	0x12b
 1309 0348 50030000 		.4byte	0x350
 1310 034c 02       		.byte	0x2
 1311 034d 23       		.byte	0x23
 1312 034e 00       		.uleb128 0
 1313 034f 00       		.byte	0
 1314 0350 09       		.uleb128 0x9
 1315 0351 04       		.byte	0x4
 1316 0352 A5020000 		.4byte	0x2a5
 1317 0356 0D       		.uleb128 0xd
 1318 0357 86000000 		.4byte	0x86
 1319 035b 04       		.uleb128 0x4
 1320 035c 04       		.byte	0x4
 1321 035d 07       		.byte	0x7
 1322 035e 29000000 		.4byte	.LASF49
 1323 0362 0D       		.uleb128 0xd
 1324 0363 05010000 		.4byte	0x105
 1325 0367 05       		.uleb128 0x5
 1326 0368 31060000 		.4byte	.LASF50
 1327 036c 10       		.byte	0x10
 1328 036d 08       		.byte	0x8
 1329 036e 25       		.byte	0x25
 1330 036f 9E030000 		.4byte	0x39e
 1331 0373 06       		.uleb128 0x6
 1332 0374 73060000 		.4byte	.LASF51
 1333 0378 08       		.byte	0x8
 1334 0379 26       		.byte	0x26
 1335 037a 6B020000 		.4byte	0x26b
 1336 037e 02       		.byte	0x2
 1337 037f 23       		.byte	0x23
 1338 0380 00       		.uleb128 0
 1339 0381 06       		.uleb128 0x6
 1340 0382 4E010000 		.4byte	.LASF52
 1341 0386 08       		.byte	0x8
 1342 0387 28       		.byte	0x28
 1343 0388 65020000 		.4byte	0x265
 1344 038c 02       		.byte	0x2
 1345 038d 23       		.byte	0x23
 1346 038e 08       		.uleb128 0x8
ARM GAS  /tmp/ccSwRXu6.s 			page 25


 1347 038f 06       		.uleb128 0x6
 1348 0390 220C0000 		.4byte	.LASF53
 1349 0394 08       		.byte	0x8
 1350 0395 2A       		.byte	0x2a
 1351 0396 9E030000 		.4byte	0x39e
 1352 039a 02       		.byte	0x2
 1353 039b 23       		.byte	0x23
 1354 039c 0C       		.uleb128 0xc
 1355 039d 00       		.byte	0
 1356 039e 09       		.uleb128 0x9
 1357 039f 04       		.byte	0x4
 1358 03a0 67030000 		.4byte	0x367
 1359 03a4 03       		.uleb128 0x3
 1360 03a5 31060000 		.4byte	.LASF50
 1361 03a9 08       		.byte	0x8
 1362 03aa 2C       		.byte	0x2c
 1363 03ab 67030000 		.4byte	0x367
 1364 03af 0E       		.uleb128 0xe
 1365 03b0 04       		.byte	0x4
 1366 03b1 06       		.byte	0x6
 1367 03b2 8F       		.byte	0x8f
 1368 03b3 E4030000 		.4byte	0x3e4
 1369 03b7 0F       		.uleb128 0xf
 1370 03b8 820B0000 		.4byte	.LASF54
 1371 03bc 06       		.byte	0x6
 1372 03bd 96       		.byte	0x96
 1373 03be EF000000 		.4byte	0xef
 1374 03c2 0F       		.uleb128 0xf
 1375 03c3 62010000 		.4byte	.LASF55
 1376 03c7 06       		.byte	0x6
 1377 03c8 9D       		.byte	0x9d
 1378 03c9 EF000000 		.4byte	0xef
 1379 03cd 0F       		.uleb128 0xf
 1380 03ce DA030000 		.4byte	.LASF56
 1381 03d2 06       		.byte	0x6
 1382 03d3 A4       		.byte	0xa4
 1383 03d4 A3020000 		.4byte	0x2a3
 1384 03d8 0F       		.uleb128 0xf
 1385 03d9 7C010000 		.4byte	.LASF57
 1386 03dd 06       		.byte	0x6
 1387 03de AB       		.byte	0xab
 1388 03df FA000000 		.4byte	0xfa
 1389 03e3 00       		.byte	0
 1390 03e4 09       		.uleb128 0x9
 1391 03e5 04       		.byte	0x4
 1392 03e6 EA030000 		.4byte	0x3ea
 1393 03ea 10       		.uleb128 0x10
 1394 03eb EF030000 		.4byte	0x3ef
 1395 03ef 04       		.uleb128 0x4
 1396 03f0 01       		.byte	0x1
 1397 03f1 08       		.byte	0x8
 1398 03f2 BF030000 		.4byte	.LASF58
 1399 03f6 09       		.uleb128 0x9
 1400 03f7 04       		.byte	0x4
 1401 03f8 A4030000 		.4byte	0x3a4
 1402 03fc 11       		.uleb128 0x11
 1403 03fd 53080000 		.4byte	.LASF266
ARM GAS  /tmp/ccSwRXu6.s 			page 26


 1404 0401 01       		.byte	0x1
 1405 0402 09       		.byte	0x9
 1406 0403 8C       		.byte	0x8c
 1407 0404 37060000 		.4byte	0x637
 1408 0408 12       		.uleb128 0x12
 1409 0409 F4040000 		.4byte	.LASF59
 1410 040d 72       		.sleb128 -14
 1411 040e 12       		.uleb128 0x12
 1412 040f 33050000 		.4byte	.LASF60
 1413 0413 74       		.sleb128 -12
 1414 0414 12       		.uleb128 0x12
 1415 0415 FD050000 		.4byte	.LASF61
 1416 0419 75       		.sleb128 -11
 1417 041a 12       		.uleb128 0x12
 1418 041b AF030000 		.4byte	.LASF62
 1419 041f 76       		.sleb128 -10
 1420 0420 12       		.uleb128 0x12
 1421 0421 CC060000 		.4byte	.LASF63
 1422 0425 7B       		.sleb128 -5
 1423 0426 12       		.uleb128 0x12
 1424 0427 160A0000 		.4byte	.LASF64
 1425 042b 7C       		.sleb128 -4
 1426 042c 12       		.uleb128 0x12
 1427 042d C90B0000 		.4byte	.LASF65
 1428 0431 7E       		.sleb128 -2
 1429 0432 12       		.uleb128 0x12
 1430 0433 36020000 		.4byte	.LASF66
 1431 0437 7F       		.sleb128 -1
 1432 0438 12       		.uleb128 0x12
 1433 0439 08050000 		.4byte	.LASF67
 1434 043d 00       		.sleb128 0
 1435 043e 12       		.uleb128 0x12
 1436 043f B5090000 		.4byte	.LASF68
 1437 0443 01       		.sleb128 1
 1438 0444 12       		.uleb128 0x12
 1439 0445 49050000 		.4byte	.LASF69
 1440 0449 02       		.sleb128 2
 1441 044a 12       		.uleb128 0x12
 1442 044b 120B0000 		.4byte	.LASF70
 1443 044f 03       		.sleb128 3
 1444 0450 12       		.uleb128 0x12
 1445 0451 EA000000 		.4byte	.LASF71
 1446 0455 04       		.sleb128 4
 1447 0456 12       		.uleb128 0x12
 1448 0457 6E0A0000 		.4byte	.LASF72
 1449 045b 05       		.sleb128 5
 1450 045c 12       		.uleb128 0x12
 1451 045d C8090000 		.4byte	.LASF73
 1452 0461 06       		.sleb128 6
 1453 0462 12       		.uleb128 0x12
 1454 0463 94040000 		.4byte	.LASF74
 1455 0467 07       		.sleb128 7
 1456 0468 12       		.uleb128 0x12
 1457 0469 41090000 		.4byte	.LASF75
 1458 046d 08       		.sleb128 8
 1459 046e 12       		.uleb128 0x12
 1460 046f BE0B0000 		.4byte	.LASF76
ARM GAS  /tmp/ccSwRXu6.s 			page 27


 1461 0473 09       		.sleb128 9
 1462 0474 12       		.uleb128 0x12
 1463 0475 890B0000 		.4byte	.LASF77
 1464 0479 0A       		.sleb128 10
 1465 047a 12       		.uleb128 0x12
 1466 047b 89080000 		.4byte	.LASF78
 1467 047f 0B       		.sleb128 11
 1468 0480 12       		.uleb128 0x12
 1469 0481 EA070000 		.4byte	.LASF79
 1470 0485 0C       		.sleb128 12
 1471 0486 12       		.uleb128 0x12
 1472 0487 97020000 		.4byte	.LASF80
 1473 048b 0D       		.sleb128 13
 1474 048c 12       		.uleb128 0x12
 1475 048d 940A0000 		.4byte	.LASF81
 1476 0491 0E       		.sleb128 14
 1477 0492 12       		.uleb128 0x12
 1478 0493 DB090000 		.4byte	.LASF82
 1479 0497 0F       		.sleb128 15
 1480 0498 12       		.uleb128 0x12
 1481 0499 AC040000 		.4byte	.LASF83
 1482 049d 10       		.sleb128 16
 1483 049e 12       		.uleb128 0x12
 1484 049f 58080000 		.4byte	.LASF84
 1485 04a3 11       		.sleb128 17
 1486 04a4 12       		.uleb128 0x12
 1487 04a5 78090000 		.4byte	.LASF85
 1488 04a9 12       		.sleb128 18
 1489 04aa 12       		.uleb128 0x12
 1490 04ab 9F040000 		.4byte	.LASF86
 1491 04af 13       		.sleb128 19
 1492 04b0 12       		.uleb128 0x12
 1493 04b1 E1030000 		.4byte	.LASF87
 1494 04b5 14       		.sleb128 20
 1495 04b6 12       		.uleb128 0x12
 1496 04b7 3F0B0000 		.4byte	.LASF88
 1497 04bb 15       		.sleb128 21
 1498 04bc 12       		.uleb128 0x12
 1499 04bd 59050000 		.4byte	.LASF89
 1500 04c1 16       		.sleb128 22
 1501 04c2 12       		.uleb128 0x12
 1502 04c3 5A0B0000 		.4byte	.LASF90
 1503 04c7 17       		.sleb128 23
 1504 04c8 12       		.uleb128 0x12
 1505 04c9 1E060000 		.4byte	.LASF91
 1506 04cd 18       		.sleb128 24
 1507 04ce 12       		.uleb128 0x12
 1508 04cf D60A0000 		.4byte	.LASF92
 1509 04d3 19       		.sleb128 25
 1510 04d4 12       		.uleb128 0x12
 1511 04d5 F6010000 		.4byte	.LASF93
 1512 04d9 1A       		.sleb128 26
 1513 04da 12       		.uleb128 0x12
 1514 04db 79040000 		.4byte	.LASF94
 1515 04df 1B       		.sleb128 27
 1516 04e0 12       		.uleb128 0x12
 1517 04e1 0C010000 		.4byte	.LASF95
ARM GAS  /tmp/ccSwRXu6.s 			page 28


 1518 04e5 1C       		.sleb128 28
 1519 04e6 12       		.uleb128 0x12
 1520 04e7 16090000 		.4byte	.LASF96
 1521 04eb 1D       		.sleb128 29
 1522 04ec 12       		.uleb128 0x12
 1523 04ed 0D040000 		.4byte	.LASF97
 1524 04f1 1E       		.sleb128 30
 1525 04f2 12       		.uleb128 0x12
 1526 04f3 49040000 		.4byte	.LASF98
 1527 04f7 1F       		.sleb128 31
 1528 04f8 12       		.uleb128 0x12
 1529 04f9 4F030000 		.4byte	.LASF99
 1530 04fd 20       		.sleb128 32
 1531 04fe 12       		.uleb128 0x12
 1532 04ff 9A070000 		.4byte	.LASF100
 1533 0503 21       		.sleb128 33
 1534 0504 12       		.uleb128 0x12
 1535 0505 AB050000 		.4byte	.LASF101
 1536 0509 22       		.sleb128 34
 1537 050a 12       		.uleb128 0x12
 1538 050b AA060000 		.4byte	.LASF102
 1539 050f 23       		.sleb128 35
 1540 0510 12       		.uleb128 0x12
 1541 0511 5D060000 		.4byte	.LASF103
 1542 0515 24       		.sleb128 36
 1543 0516 12       		.uleb128 0x12
 1544 0517 20090000 		.4byte	.LASF104
 1545 051b 25       		.sleb128 37
 1546 051c 12       		.uleb128 0x12
 1547 051d 17040000 		.4byte	.LASF105
 1548 0521 26       		.sleb128 38
 1549 0522 12       		.uleb128 0x12
 1550 0523 43020000 		.4byte	.LASF106
 1551 0527 27       		.sleb128 39
 1552 0528 12       		.uleb128 0x12
 1553 0529 D9080000 		.4byte	.LASF107
 1554 052d 28       		.sleb128 40
 1555 052e 12       		.uleb128 0x12
 1556 052f B3080000 		.4byte	.LASF108
 1557 0533 29       		.sleb128 41
 1558 0534 12       		.uleb128 0x12
 1559 0535 41070000 		.4byte	.LASF109
 1560 0539 2A       		.sleb128 42
 1561 053a 12       		.uleb128 0x12
 1562 053b 83010000 		.4byte	.LASF110
 1563 053f 2B       		.sleb128 43
 1564 0540 12       		.uleb128 0x12
 1565 0541 0C000000 		.4byte	.LASF111
 1566 0545 2C       		.sleb128 44
 1567 0546 12       		.uleb128 0x12
 1568 0547 BE040000 		.4byte	.LASF112
 1569 054b 2D       		.sleb128 45
 1570 054c 12       		.uleb128 0x12
 1571 054d A70B0000 		.4byte	.LASF113
 1572 0551 2E       		.sleb128 46
 1573 0552 12       		.uleb128 0x12
 1574 0553 E80B0000 		.4byte	.LASF114
ARM GAS  /tmp/ccSwRXu6.s 			page 29


 1575 0557 2F       		.sleb128 47
 1576 0558 12       		.uleb128 0x12
 1577 0559 BE090000 		.4byte	.LASF115
 1578 055d 30       		.sleb128 48
 1579 055e 12       		.uleb128 0x12
 1580 055f B40B0000 		.4byte	.LASF116
 1581 0563 31       		.sleb128 49
 1582 0564 12       		.uleb128 0x12
 1583 0565 99030000 		.4byte	.LASF117
 1584 0569 32       		.sleb128 50
 1585 056a 12       		.uleb128 0x12
 1586 056b E0000000 		.4byte	.LASF118
 1587 056f 33       		.sleb128 51
 1588 0570 12       		.uleb128 0x12
 1589 0571 F6060000 		.4byte	.LASF119
 1590 0575 34       		.sleb128 52
 1591 0576 12       		.uleb128 0x12
 1592 0577 13060000 		.4byte	.LASF120
 1593 057b 35       		.sleb128 53
 1594 057c 12       		.uleb128 0x12
 1595 057d 71070000 		.4byte	.LASF121
 1596 0581 36       		.sleb128 54
 1597 0582 12       		.uleb128 0x12
 1598 0583 37060000 		.4byte	.LASF122
 1599 0587 37       		.sleb128 55
 1600 0588 12       		.uleb128 0x12
 1601 0589 7A050000 		.4byte	.LASF123
 1602 058d 38       		.sleb128 56
 1603 058e 12       		.uleb128 0x12
 1604 058f CE000000 		.4byte	.LASF124
 1605 0593 39       		.sleb128 57
 1606 0594 12       		.uleb128 0x12
 1607 0595 480C0000 		.4byte	.LASF125
 1608 0599 3A       		.sleb128 58
 1609 059a 12       		.uleb128 0x12
 1610 059b FC070000 		.4byte	.LASF126
 1611 059f 3B       		.sleb128 59
 1612 05a0 12       		.uleb128 0x12
 1613 05a1 CB020000 		.4byte	.LASF127
 1614 05a5 3C       		.sleb128 60
 1615 05a6 12       		.uleb128 0x12
 1616 05a7 4F0A0000 		.4byte	.LASF128
 1617 05ab 3D       		.sleb128 61
 1618 05ac 12       		.uleb128 0x12
 1619 05ad 4F060000 		.4byte	.LASF129
 1620 05b1 3E       		.sleb128 62
 1621 05b2 12       		.uleb128 0x12
 1622 05b3 0E080000 		.4byte	.LASF130
 1623 05b7 3F       		.sleb128 63
 1624 05b8 12       		.uleb128 0x12
 1625 05b9 34010000 		.4byte	.LASF131
 1626 05bd C000     		.sleb128 64
 1627 05bf 12       		.uleb128 0x12
 1628 05c0 63090000 		.4byte	.LASF132
 1629 05c4 C100     		.sleb128 65
 1630 05c6 12       		.uleb128 0x12
 1631 05c7 67030000 		.4byte	.LASF133
ARM GAS  /tmp/ccSwRXu6.s 			page 30


 1632 05cb C200     		.sleb128 66
 1633 05cd 12       		.uleb128 0x12
 1634 05ce E8040000 		.4byte	.LASF134
 1635 05d2 C300     		.sleb128 67
 1636 05d4 12       		.uleb128 0x12
 1637 05d5 C8010000 		.4byte	.LASF135
 1638 05d9 C400     		.sleb128 68
 1639 05db 12       		.uleb128 0x12
 1640 05dc FC090000 		.4byte	.LASF136
 1641 05e0 C500     		.sleb128 69
 1642 05e2 12       		.uleb128 0x12
 1643 05e3 D6040000 		.4byte	.LASF137
 1644 05e7 C600     		.sleb128 70
 1645 05e9 12       		.uleb128 0x12
 1646 05ea 42010000 		.4byte	.LASF138
 1647 05ee C700     		.sleb128 71
 1648 05f0 12       		.uleb128 0x12
 1649 05f1 280A0000 		.4byte	.LASF139
 1650 05f5 C800     		.sleb128 72
 1651 05f7 12       		.uleb128 0x12
 1652 05f8 C2080000 		.4byte	.LASF140
 1653 05fc C900     		.sleb128 73
 1654 05fe 12       		.uleb128 0x12
 1655 05ff FE0A0000 		.4byte	.LASF141
 1656 0603 CA00     		.sleb128 74
 1657 0605 12       		.uleb128 0x12
 1658 0606 D50B0000 		.4byte	.LASF142
 1659 060a CB00     		.sleb128 75
 1660 060c 12       		.uleb128 0x12
 1661 060d 6B010000 		.4byte	.LASF143
 1662 0611 CC00     		.sleb128 76
 1663 0613 12       		.uleb128 0x12
 1664 0614 67060000 		.4byte	.LASF144
 1665 0618 CD00     		.sleb128 77
 1666 061a 12       		.uleb128 0x12
 1667 061b F5000000 		.4byte	.LASF145
 1668 061f CE00     		.sleb128 78
 1669 0621 12       		.uleb128 0x12
 1670 0622 CF080000 		.4byte	.LASF146
 1671 0626 CF00     		.sleb128 79
 1672 0628 12       		.uleb128 0x12
 1673 0629 86040000 		.4byte	.LASF147
 1674 062d D000     		.sleb128 80
 1675 062f 12       		.uleb128 0x12
 1676 0630 ED060000 		.4byte	.LASF148
 1677 0634 D100     		.sleb128 81
 1678 0636 00       		.byte	0
 1679 0637 13       		.uleb128 0x13
 1680 0638 86000000 		.4byte	0x86
 1681 063c 47060000 		.4byte	0x647
 1682 0640 14       		.uleb128 0x14
 1683 0641 5B030000 		.4byte	0x35b
 1684 0645 01       		.byte	0x1
 1685 0646 00       		.byte	0
 1686 0647 0D       		.uleb128 0xd
 1687 0648 74000000 		.4byte	0x74
 1688 064c 15       		.uleb128 0x15
ARM GAS  /tmp/ccSwRXu6.s 			page 31


 1689 064d 50       		.byte	0x50
 1690 064e 09       		.byte	0x9
 1691 064f 2C01     		.2byte	0x12c
 1692 0651 80070000 		.4byte	0x780
 1693 0655 0C       		.uleb128 0xc
 1694 0656 535200   		.ascii	"SR\000"
 1695 0659 09       		.byte	0x9
 1696 065a 2E01     		.2byte	0x12e
 1697 065c 56030000 		.4byte	0x356
 1698 0660 02       		.byte	0x2
 1699 0661 23       		.byte	0x23
 1700 0662 00       		.uleb128 0
 1701 0663 0C       		.uleb128 0xc
 1702 0664 43523100 		.ascii	"CR1\000"
 1703 0668 09       		.byte	0x9
 1704 0669 2F01     		.2byte	0x12f
 1705 066b 56030000 		.4byte	0x356
 1706 066f 02       		.byte	0x2
 1707 0670 23       		.byte	0x23
 1708 0671 04       		.uleb128 0x4
 1709 0672 0C       		.uleb128 0xc
 1710 0673 43523200 		.ascii	"CR2\000"
 1711 0677 09       		.byte	0x9
 1712 0678 3001     		.2byte	0x130
 1713 067a 56030000 		.4byte	0x356
 1714 067e 02       		.byte	0x2
 1715 067f 23       		.byte	0x23
 1716 0680 08       		.uleb128 0x8
 1717 0681 16       		.uleb128 0x16
 1718 0682 8C050000 		.4byte	.LASF149
 1719 0686 09       		.byte	0x9
 1720 0687 3101     		.2byte	0x131
 1721 0689 56030000 		.4byte	0x356
 1722 068d 02       		.byte	0x2
 1723 068e 23       		.byte	0x23
 1724 068f 0C       		.uleb128 0xc
 1725 0690 16       		.uleb128 0x16
 1726 0691 92050000 		.4byte	.LASF150
 1727 0695 09       		.byte	0x9
 1728 0696 3201     		.2byte	0x132
 1729 0698 56030000 		.4byte	0x356
 1730 069c 02       		.byte	0x2
 1731 069d 23       		.byte	0x23
 1732 069e 10       		.uleb128 0x10
 1733 069f 16       		.uleb128 0x16
 1734 06a0 7C0A0000 		.4byte	.LASF151
 1735 06a4 09       		.byte	0x9
 1736 06a5 3301     		.2byte	0x133
 1737 06a7 56030000 		.4byte	0x356
 1738 06ab 02       		.byte	0x2
 1739 06ac 23       		.byte	0x23
 1740 06ad 14       		.uleb128 0x14
 1741 06ae 16       		.uleb128 0x16
 1742 06af 820A0000 		.4byte	.LASF152
 1743 06b3 09       		.byte	0x9
 1744 06b4 3401     		.2byte	0x134
 1745 06b6 56030000 		.4byte	0x356
ARM GAS  /tmp/ccSwRXu6.s 			page 32


 1746 06ba 02       		.byte	0x2
 1747 06bb 23       		.byte	0x23
 1748 06bc 18       		.uleb128 0x18
 1749 06bd 16       		.uleb128 0x16
 1750 06be 880A0000 		.4byte	.LASF153
 1751 06c2 09       		.byte	0x9
 1752 06c3 3501     		.2byte	0x135
 1753 06c5 56030000 		.4byte	0x356
 1754 06c9 02       		.byte	0x2
 1755 06ca 23       		.byte	0x23
 1756 06cb 1C       		.uleb128 0x1c
 1757 06cc 16       		.uleb128 0x16
 1758 06cd 8E0A0000 		.4byte	.LASF154
 1759 06d1 09       		.byte	0x9
 1760 06d2 3601     		.2byte	0x136
 1761 06d4 56030000 		.4byte	0x356
 1762 06d8 02       		.byte	0x2
 1763 06d9 23       		.byte	0x23
 1764 06da 20       		.uleb128 0x20
 1765 06db 0C       		.uleb128 0xc
 1766 06dc 48545200 		.ascii	"HTR\000"
 1767 06e0 09       		.byte	0x9
 1768 06e1 3701     		.2byte	0x137
 1769 06e3 56030000 		.4byte	0x356
 1770 06e7 02       		.byte	0x2
 1771 06e8 23       		.byte	0x23
 1772 06e9 24       		.uleb128 0x24
 1773 06ea 0C       		.uleb128 0xc
 1774 06eb 4C545200 		.ascii	"LTR\000"
 1775 06ef 09       		.byte	0x9
 1776 06f0 3801     		.2byte	0x138
 1777 06f2 56030000 		.4byte	0x356
 1778 06f6 02       		.byte	0x2
 1779 06f7 23       		.byte	0x23
 1780 06f8 28       		.uleb128 0x28
 1781 06f9 16       		.uleb128 0x16
 1782 06fa 71000000 		.4byte	.LASF155
 1783 06fe 09       		.byte	0x9
 1784 06ff 3901     		.2byte	0x139
 1785 0701 56030000 		.4byte	0x356
 1786 0705 02       		.byte	0x2
 1787 0706 23       		.byte	0x23
 1788 0707 2C       		.uleb128 0x2c
 1789 0708 16       		.uleb128 0x16
 1790 0709 76000000 		.4byte	.LASF156
 1791 070d 09       		.byte	0x9
 1792 070e 3A01     		.2byte	0x13a
 1793 0710 56030000 		.4byte	0x356
 1794 0714 02       		.byte	0x2
 1795 0715 23       		.byte	0x23
 1796 0716 30       		.uleb128 0x30
 1797 0717 16       		.uleb128 0x16
 1798 0718 7B000000 		.4byte	.LASF157
 1799 071c 09       		.byte	0x9
 1800 071d 3B01     		.2byte	0x13b
 1801 071f 56030000 		.4byte	0x356
 1802 0723 02       		.byte	0x2
ARM GAS  /tmp/ccSwRXu6.s 			page 33


 1803 0724 23       		.byte	0x23
 1804 0725 34       		.uleb128 0x34
 1805 0726 16       		.uleb128 0x16
 1806 0727 D10A0000 		.4byte	.LASF158
 1807 072b 09       		.byte	0x9
 1808 072c 3C01     		.2byte	0x13c
 1809 072e 56030000 		.4byte	0x356
 1810 0732 02       		.byte	0x2
 1811 0733 23       		.byte	0x23
 1812 0734 38       		.uleb128 0x38
 1813 0735 16       		.uleb128 0x16
 1814 0736 BB0A0000 		.4byte	.LASF159
 1815 073a 09       		.byte	0x9
 1816 073b 3D01     		.2byte	0x13d
 1817 073d 56030000 		.4byte	0x356
 1818 0741 02       		.byte	0x2
 1819 0742 23       		.byte	0x23
 1820 0743 3C       		.uleb128 0x3c
 1821 0744 16       		.uleb128 0x16
 1822 0745 C00A0000 		.4byte	.LASF160
 1823 0749 09       		.byte	0x9
 1824 074a 3E01     		.2byte	0x13e
 1825 074c 56030000 		.4byte	0x356
 1826 0750 02       		.byte	0x2
 1827 0751 23       		.byte	0x23
 1828 0752 40       		.uleb128 0x40
 1829 0753 16       		.uleb128 0x16
 1830 0754 C50A0000 		.4byte	.LASF161
 1831 0758 09       		.byte	0x9
 1832 0759 3F01     		.2byte	0x13f
 1833 075b 56030000 		.4byte	0x356
 1834 075f 02       		.byte	0x2
 1835 0760 23       		.byte	0x23
 1836 0761 44       		.uleb128 0x44
 1837 0762 16       		.uleb128 0x16
 1838 0763 56010000 		.4byte	.LASF162
 1839 0767 09       		.byte	0x9
 1840 0768 4001     		.2byte	0x140
 1841 076a 56030000 		.4byte	0x356
 1842 076e 02       		.byte	0x2
 1843 076f 23       		.byte	0x23
 1844 0770 48       		.uleb128 0x48
 1845 0771 0C       		.uleb128 0xc
 1846 0772 445200   		.ascii	"DR\000"
 1847 0775 09       		.byte	0x9
 1848 0776 4101     		.2byte	0x141
 1849 0778 56030000 		.4byte	0x356
 1850 077c 02       		.byte	0x2
 1851 077d 23       		.byte	0x23
 1852 077e 4C       		.uleb128 0x4c
 1853 077f 00       		.byte	0
 1854 0780 17       		.uleb128 0x17
 1855 0781 56040000 		.4byte	.LASF163
 1856 0785 09       		.byte	0x9
 1857 0786 4201     		.2byte	0x142
 1858 0788 4C060000 		.4byte	0x64c
 1859 078c 15       		.uleb128 0x15
ARM GAS  /tmp/ccSwRXu6.s 			page 34


 1860 078d 0C       		.byte	0xc
 1861 078e 09       		.byte	0x9
 1862 078f 4401     		.2byte	0x144
 1863 0791 C3070000 		.4byte	0x7c3
 1864 0795 0C       		.uleb128 0xc
 1865 0796 43535200 		.ascii	"CSR\000"
 1866 079a 09       		.byte	0x9
 1867 079b 4601     		.2byte	0x146
 1868 079d 56030000 		.4byte	0x356
 1869 07a1 02       		.byte	0x2
 1870 07a2 23       		.byte	0x23
 1871 07a3 00       		.uleb128 0
 1872 07a4 0C       		.uleb128 0xc
 1873 07a5 43435200 		.ascii	"CCR\000"
 1874 07a9 09       		.byte	0x9
 1875 07aa 4701     		.2byte	0x147
 1876 07ac 56030000 		.4byte	0x356
 1877 07b0 02       		.byte	0x2
 1878 07b1 23       		.byte	0x23
 1879 07b2 04       		.uleb128 0x4
 1880 07b3 0C       		.uleb128 0xc
 1881 07b4 43445200 		.ascii	"CDR\000"
 1882 07b8 09       		.byte	0x9
 1883 07b9 4801     		.2byte	0x148
 1884 07bb 56030000 		.4byte	0x356
 1885 07bf 02       		.byte	0x2
 1886 07c0 23       		.byte	0x23
 1887 07c1 08       		.uleb128 0x8
 1888 07c2 00       		.byte	0
 1889 07c3 17       		.uleb128 0x17
 1890 07c4 030C0000 		.4byte	.LASF164
 1891 07c8 09       		.byte	0x9
 1892 07c9 4A01     		.2byte	0x14a
 1893 07cb 8C070000 		.4byte	0x78c
 1894 07cf 15       		.uleb128 0x15
 1895 07d0 18       		.byte	0x18
 1896 07d1 09       		.byte	0x9
 1897 07d2 D301     		.2byte	0x1d3
 1898 07d4 32080000 		.4byte	0x832
 1899 07d8 0C       		.uleb128 0xc
 1900 07d9 435200   		.ascii	"CR\000"
 1901 07dc 09       		.byte	0x9
 1902 07dd D501     		.2byte	0x1d5
 1903 07df 56030000 		.4byte	0x356
 1904 07e3 02       		.byte	0x2
 1905 07e4 23       		.byte	0x23
 1906 07e5 00       		.uleb128 0
 1907 07e6 16       		.uleb128 0x16
 1908 07e7 200B0000 		.4byte	.LASF165
 1909 07eb 09       		.byte	0x9
 1910 07ec D601     		.2byte	0x1d6
 1911 07ee 56030000 		.4byte	0x356
 1912 07f2 02       		.byte	0x2
 1913 07f3 23       		.byte	0x23
 1914 07f4 04       		.uleb128 0x4
 1915 07f5 0C       		.uleb128 0xc
 1916 07f6 50415200 		.ascii	"PAR\000"
ARM GAS  /tmp/ccSwRXu6.s 			page 35


 1917 07fa 09       		.byte	0x9
 1918 07fb D701     		.2byte	0x1d7
 1919 07fd 56030000 		.4byte	0x356
 1920 0801 02       		.byte	0x2
 1921 0802 23       		.byte	0x23
 1922 0803 08       		.uleb128 0x8
 1923 0804 16       		.uleb128 0x16
 1924 0805 4A0A0000 		.4byte	.LASF166
 1925 0809 09       		.byte	0x9
 1926 080a D801     		.2byte	0x1d8
 1927 080c 56030000 		.4byte	0x356
 1928 0810 02       		.byte	0x2
 1929 0811 23       		.byte	0x23
 1930 0812 0C       		.uleb128 0xc
 1931 0813 16       		.uleb128 0x16
 1932 0814 00000000 		.4byte	.LASF167
 1933 0818 09       		.byte	0x9
 1934 0819 D901     		.2byte	0x1d9
 1935 081b 56030000 		.4byte	0x356
 1936 081f 02       		.byte	0x2
 1937 0820 23       		.byte	0x23
 1938 0821 10       		.uleb128 0x10
 1939 0822 0C       		.uleb128 0xc
 1940 0823 46435200 		.ascii	"FCR\000"
 1941 0827 09       		.byte	0x9
 1942 0828 DA01     		.2byte	0x1da
 1943 082a 56030000 		.4byte	0x356
 1944 082e 02       		.byte	0x2
 1945 082f 23       		.byte	0x23
 1946 0830 14       		.uleb128 0x14
 1947 0831 00       		.byte	0
 1948 0832 17       		.uleb128 0x17
 1949 0833 33080000 		.4byte	.LASF168
 1950 0837 09       		.byte	0x9
 1951 0838 DB01     		.2byte	0x1db
 1952 083a CF070000 		.4byte	0x7cf
 1953 083e 15       		.uleb128 0x15
 1954 083f 88       		.byte	0x88
 1955 0840 09       		.byte	0x9
 1956 0841 DB02     		.2byte	0x2db
 1957 0843 0B0A0000 		.4byte	0xa0b
 1958 0847 0C       		.uleb128 0xc
 1959 0848 435200   		.ascii	"CR\000"
 1960 084b 09       		.byte	0x9
 1961 084c DD02     		.2byte	0x2dd
 1962 084e 56030000 		.4byte	0x356
 1963 0852 02       		.byte	0x2
 1964 0853 23       		.byte	0x23
 1965 0854 00       		.uleb128 0
 1966 0855 16       		.uleb128 0x16
 1967 0856 0B060000 		.4byte	.LASF169
 1968 085a 09       		.byte	0x9
 1969 085b DE02     		.2byte	0x2de
 1970 085d 56030000 		.4byte	0x356
 1971 0861 02       		.byte	0x2
 1972 0862 23       		.byte	0x23
 1973 0863 04       		.uleb128 0x4
ARM GAS  /tmp/ccSwRXu6.s 			page 36


 1974 0864 16       		.uleb128 0x16
 1975 0865 74040000 		.4byte	.LASF170
 1976 0869 09       		.byte	0x9
 1977 086a DF02     		.2byte	0x2df
 1978 086c 56030000 		.4byte	0x356
 1979 0870 02       		.byte	0x2
 1980 0871 23       		.byte	0x23
 1981 0872 08       		.uleb128 0x8
 1982 0873 0C       		.uleb128 0xc
 1983 0874 43495200 		.ascii	"CIR\000"
 1984 0878 09       		.byte	0x9
 1985 0879 E002     		.2byte	0x2e0
 1986 087b 56030000 		.4byte	0x356
 1987 087f 02       		.byte	0x2
 1988 0880 23       		.byte	0x23
 1989 0881 0C       		.uleb128 0xc
 1990 0882 16       		.uleb128 0x16
 1991 0883 FA0B0000 		.4byte	.LASF171
 1992 0887 09       		.byte	0x9
 1993 0888 E102     		.2byte	0x2e1
 1994 088a 56030000 		.4byte	0x356
 1995 088e 02       		.byte	0x2
 1996 088f 23       		.byte	0x23
 1997 0890 10       		.uleb128 0x10
 1998 0891 16       		.uleb128 0x16
 1999 0892 3A0A0000 		.4byte	.LASF172
 2000 0896 09       		.byte	0x9
 2001 0897 E202     		.2byte	0x2e2
 2002 0899 56030000 		.4byte	0x356
 2003 089d 02       		.byte	0x2
 2004 089e 23       		.byte	0x23
 2005 089f 14       		.uleb128 0x14
 2006 08a0 16       		.uleb128 0x16
 2007 08a1 6A080000 		.4byte	.LASF173
 2008 08a5 09       		.byte	0x9
 2009 08a6 E302     		.2byte	0x2e3
 2010 08a8 56030000 		.4byte	0x356
 2011 08ac 02       		.byte	0x2
 2012 08ad 23       		.byte	0x23
 2013 08ae 18       		.uleb128 0x18
 2014 08af 16       		.uleb128 0x16
 2015 08b0 A9020000 		.4byte	.LASF174
 2016 08b4 09       		.byte	0x9
 2017 08b5 E402     		.2byte	0x2e4
 2018 08b7 86000000 		.4byte	0x86
 2019 08bb 02       		.byte	0x2
 2020 08bc 23       		.byte	0x23
 2021 08bd 1C       		.uleb128 0x1c
 2022 08be 16       		.uleb128 0x16
 2023 08bf 9B080000 		.4byte	.LASF175
 2024 08c3 09       		.byte	0x9
 2025 08c4 E502     		.2byte	0x2e5
 2026 08c6 56030000 		.4byte	0x356
 2027 08ca 02       		.byte	0x2
 2028 08cb 23       		.byte	0x23
 2029 08cc 20       		.uleb128 0x20
 2030 08cd 16       		.uleb128 0x16
ARM GAS  /tmp/ccSwRXu6.s 			page 37


 2031 08ce D8060000 		.4byte	.LASF176
 2032 08d2 09       		.byte	0x9
 2033 08d3 E602     		.2byte	0x2e6
 2034 08d5 56030000 		.4byte	0x356
 2035 08d9 02       		.byte	0x2
 2036 08da 23       		.byte	0x23
 2037 08db 24       		.uleb128 0x24
 2038 08dc 16       		.uleb128 0x16
 2039 08dd B3020000 		.4byte	.LASF177
 2040 08e1 09       		.byte	0x9
 2041 08e2 E702     		.2byte	0x2e7
 2042 08e4 37060000 		.4byte	0x637
 2043 08e8 02       		.byte	0x2
 2044 08e9 23       		.byte	0x23
 2045 08ea 28       		.uleb128 0x28
 2046 08eb 16       		.uleb128 0x16
 2047 08ec 0E0A0000 		.4byte	.LASF178
 2048 08f0 09       		.byte	0x9
 2049 08f1 E802     		.2byte	0x2e8
 2050 08f3 56030000 		.4byte	0x356
 2051 08f7 02       		.byte	0x2
 2052 08f8 23       		.byte	0x23
 2053 08f9 30       		.uleb128 0x30
 2054 08fa 16       		.uleb128 0x16
 2055 08fb D2030000 		.4byte	.LASF179
 2056 08ff 09       		.byte	0x9
 2057 0900 E902     		.2byte	0x2e9
 2058 0902 56030000 		.4byte	0x356
 2059 0906 02       		.byte	0x2
 2060 0907 23       		.byte	0x23
 2061 0908 34       		.uleb128 0x34
 2062 0909 16       		.uleb128 0x16
 2063 090a 400C0000 		.4byte	.LASF180
 2064 090e 09       		.byte	0x9
 2065 090f EA02     		.2byte	0x2ea
 2066 0911 56030000 		.4byte	0x356
 2067 0915 02       		.byte	0x2
 2068 0916 23       		.byte	0x23
 2069 0917 38       		.uleb128 0x38
 2070 0918 16       		.uleb128 0x16
 2071 0919 85030000 		.4byte	.LASF181
 2072 091d 09       		.byte	0x9
 2073 091e EB02     		.2byte	0x2eb
 2074 0920 86000000 		.4byte	0x86
 2075 0924 02       		.byte	0x2
 2076 0925 23       		.byte	0x23
 2077 0926 3C       		.uleb128 0x3c
 2078 0927 16       		.uleb128 0x16
 2079 0928 24050000 		.4byte	.LASF182
 2080 092c 09       		.byte	0x9
 2081 092d EC02     		.2byte	0x2ec
 2082 092f 56030000 		.4byte	0x356
 2083 0933 02       		.byte	0x2
 2084 0934 23       		.byte	0x23
 2085 0935 40       		.uleb128 0x40
 2086 0936 16       		.uleb128 0x16
 2087 0937 24020000 		.4byte	.LASF183
ARM GAS  /tmp/ccSwRXu6.s 			page 38


 2088 093b 09       		.byte	0x9
 2089 093c ED02     		.2byte	0x2ed
 2090 093e 56030000 		.4byte	0x356
 2091 0942 02       		.byte	0x2
 2092 0943 23       		.byte	0x23
 2093 0944 44       		.uleb128 0x44
 2094 0945 16       		.uleb128 0x16
 2095 0946 8F030000 		.4byte	.LASF184
 2096 094a 09       		.byte	0x9
 2097 094b EE02     		.2byte	0x2ee
 2098 094d 37060000 		.4byte	0x637
 2099 0951 02       		.byte	0x2
 2100 0952 23       		.byte	0x23
 2101 0953 48       		.uleb128 0x48
 2102 0954 16       		.uleb128 0x16
 2103 0955 2C020000 		.4byte	.LASF185
 2104 0959 09       		.byte	0x9
 2105 095a EF02     		.2byte	0x2ef
 2106 095c 56030000 		.4byte	0x356
 2107 0960 02       		.byte	0x2
 2108 0961 23       		.byte	0x23
 2109 0962 50       		.uleb128 0x50
 2110 0963 16       		.uleb128 0x16
 2111 0964 97010000 		.4byte	.LASF186
 2112 0968 09       		.byte	0x9
 2113 0969 F002     		.2byte	0x2f0
 2114 096b 56030000 		.4byte	0x356
 2115 096f 02       		.byte	0x2
 2116 0970 23       		.byte	0x23
 2117 0971 54       		.uleb128 0x54
 2118 0972 16       		.uleb128 0x16
 2119 0973 97090000 		.4byte	.LASF187
 2120 0977 09       		.byte	0x9
 2121 0978 F102     		.2byte	0x2f1
 2122 097a 56030000 		.4byte	0x356
 2123 097e 02       		.byte	0x2
 2124 097f 23       		.byte	0x23
 2125 0980 58       		.uleb128 0x58
 2126 0981 16       		.uleb128 0x16
 2127 0982 DD020000 		.4byte	.LASF188
 2128 0986 09       		.byte	0x9
 2129 0987 F202     		.2byte	0x2f2
 2130 0989 86000000 		.4byte	0x86
 2131 098d 02       		.byte	0x2
 2132 098e 23       		.byte	0x23
 2133 098f 5C       		.uleb128 0x5c
 2134 0990 16       		.uleb128 0x16
 2135 0991 E0070000 		.4byte	.LASF189
 2136 0995 09       		.byte	0x9
 2137 0996 F302     		.2byte	0x2f3
 2138 0998 56030000 		.4byte	0x356
 2139 099c 02       		.byte	0x2
 2140 099d 23       		.byte	0x23
 2141 099e 60       		.uleb128 0x60
 2142 099f 16       		.uleb128 0x16
 2143 09a0 2D070000 		.4byte	.LASF190
 2144 09a4 09       		.byte	0x9
ARM GAS  /tmp/ccSwRXu6.s 			page 39


 2145 09a5 F402     		.2byte	0x2f4
 2146 09a7 56030000 		.4byte	0x356
 2147 09ab 02       		.byte	0x2
 2148 09ac 23       		.byte	0x23
 2149 09ad 64       		.uleb128 0x64
 2150 09ae 16       		.uleb128 0x16
 2151 09af E7020000 		.4byte	.LASF191
 2152 09b3 09       		.byte	0x9
 2153 09b4 F502     		.2byte	0x2f5
 2154 09b6 37060000 		.4byte	0x637
 2155 09ba 02       		.byte	0x2
 2156 09bb 23       		.byte	0x23
 2157 09bc 68       		.uleb128 0x68
 2158 09bd 16       		.uleb128 0x16
 2159 09be 3C040000 		.4byte	.LASF192
 2160 09c2 09       		.byte	0x9
 2161 09c3 F602     		.2byte	0x2f6
 2162 09c5 56030000 		.4byte	0x356
 2163 09c9 02       		.byte	0x2
 2164 09ca 23       		.byte	0x23
 2165 09cb 70       		.uleb128 0x70
 2166 09cc 0C       		.uleb128 0xc
 2167 09cd 43535200 		.ascii	"CSR\000"
 2168 09d1 09       		.byte	0x9
 2169 09d2 F702     		.2byte	0x2f7
 2170 09d4 56030000 		.4byte	0x356
 2171 09d8 02       		.byte	0x2
 2172 09d9 23       		.byte	0x23
 2173 09da 74       		.uleb128 0x74
 2174 09db 16       		.uleb128 0x16
 2175 09dc F1020000 		.4byte	.LASF193
 2176 09e0 09       		.byte	0x9
 2177 09e1 F802     		.2byte	0x2f8
 2178 09e3 37060000 		.4byte	0x637
 2179 09e7 02       		.byte	0x2
 2180 09e8 23       		.byte	0x23
 2181 09e9 78       		.uleb128 0x78
 2182 09ea 16       		.uleb128 0x16
 2183 09eb 46080000 		.4byte	.LASF194
 2184 09ef 09       		.byte	0x9
 2185 09f0 F902     		.2byte	0x2f9
 2186 09f2 56030000 		.4byte	0x356
 2187 09f6 03       		.byte	0x3
 2188 09f7 23       		.byte	0x23
 2189 09f8 8001     		.uleb128 0x80
 2190 09fa 16       		.uleb128 0x16
 2191 09fb 4A000000 		.4byte	.LASF195
 2192 09ff 09       		.byte	0x9
 2193 0a00 FA02     		.2byte	0x2fa
 2194 0a02 56030000 		.4byte	0x356
 2195 0a06 03       		.byte	0x3
 2196 0a07 23       		.byte	0x23
 2197 0a08 8401     		.uleb128 0x84
 2198 0a0a 00       		.byte	0
 2199 0a0b 17       		.uleb128 0x17
 2200 0a0c 580A0000 		.4byte	.LASF196
 2201 0a10 09       		.byte	0x9
ARM GAS  /tmp/ccSwRXu6.s 			page 40


 2202 0a11 FB02     		.2byte	0x2fb
 2203 0a13 3E080000 		.4byte	0x83e
 2204 0a17 08       		.uleb128 0x8
 2205 0a18 0C       		.byte	0xc
 2206 0a19 0A       		.byte	0xa
 2207 0a1a DA       		.byte	0xda
 2208 0a1b 660A0000 		.4byte	0xa66
 2209 0a1f 06       		.uleb128 0x6
 2210 0a20 23040000 		.4byte	.LASF197
 2211 0a24 0A       		.byte	0xa
 2212 0a25 DB       		.byte	0xdb
 2213 0a26 660A0000 		.4byte	0xa66
 2214 0a2a 02       		.byte	0x2
 2215 0a2b 23       		.byte	0x23
 2216 0a2c 00       		.uleb128 0
 2217 0a2d 06       		.uleb128 0x6
 2218 0a2e 160C0000 		.4byte	.LASF198
 2219 0a32 0A       		.byte	0xa
 2220 0a33 DC       		.byte	0xdc
 2221 0a34 6C0A0000 		.4byte	0xa6c
 2222 0a38 02       		.byte	0x2
 2223 0a39 23       		.byte	0x23
 2224 0a3a 04       		.uleb128 0x4
 2225 0a3b 06       		.uleb128 0x6
 2226 0a3c C4030000 		.4byte	.LASF199
 2227 0a40 0A       		.byte	0xa
 2228 0a41 DD       		.byte	0xdd
 2229 0a42 49000000 		.4byte	0x49
 2230 0a46 02       		.byte	0x2
 2231 0a47 23       		.byte	0x23
 2232 0a48 08       		.uleb128 0x8
 2233 0a49 06       		.uleb128 0x6
 2234 0a4a 5A070000 		.4byte	.LASF200
 2235 0a4e 0A       		.byte	0xa
 2236 0a4f DF       		.byte	0xdf
 2237 0a50 49000000 		.4byte	0x49
 2238 0a54 02       		.byte	0x2
 2239 0a55 23       		.byte	0x23
 2240 0a56 09       		.uleb128 0x9
 2241 0a57 06       		.uleb128 0x6
 2242 0a58 71090000 		.4byte	.LASF201
 2243 0a5c 0A       		.byte	0xa
 2244 0a5d E0       		.byte	0xe0
 2245 0a5e 49000000 		.4byte	0x49
 2246 0a62 02       		.byte	0x2
 2247 0a63 23       		.byte	0x23
 2248 0a64 0A       		.uleb128 0xa
 2249 0a65 00       		.byte	0
 2250 0a66 09       		.uleb128 0x9
 2251 0a67 04       		.byte	0x4
 2252 0a68 32080000 		.4byte	0x832
 2253 0a6c 09       		.uleb128 0x9
 2254 0a6d 04       		.byte	0x4
 2255 0a6e 56030000 		.4byte	0x356
 2256 0a72 03       		.uleb128 0x3
 2257 0a73 98050000 		.4byte	.LASF202
 2258 0a77 0A       		.byte	0xa
ARM GAS  /tmp/ccSwRXu6.s 			page 41


 2259 0a78 E1       		.byte	0xe1
 2260 0a79 170A0000 		.4byte	0xa17
 2261 0a7d 03       		.uleb128 0x3
 2262 0a7e A4080000 		.4byte	.LASF203
 2263 0a82 0A       		.byte	0xa
 2264 0a83 EA       		.byte	0xea
 2265 0a84 880A0000 		.4byte	0xa88
 2266 0a88 09       		.uleb128 0x9
 2267 0a89 04       		.byte	0x4
 2268 0a8a 8E0A0000 		.4byte	0xa8e
 2269 0a8e 18       		.uleb128 0x18
 2270 0a8f 01       		.byte	0x1
 2271 0a90 9F0A0000 		.4byte	0xa9f
 2272 0a94 19       		.uleb128 0x19
 2273 0a95 A3020000 		.4byte	0x2a3
 2274 0a99 19       		.uleb128 0x19
 2275 0a9a 86000000 		.4byte	0x86
 2276 0a9e 00       		.byte	0
 2277 0a9f 1A       		.uleb128 0x1a
 2278 0aa0 01       		.byte	0x1
 2279 0aa1 0B       		.byte	0xb
 2280 0aa2 4E       		.byte	0x4e
 2281 0aa3 CC0A0000 		.4byte	0xacc
 2282 0aa7 12       		.uleb128 0x12
 2283 0aa8 5C030000 		.4byte	.LASF204
 2284 0aac 00       		.sleb128 0
 2285 0aad 12       		.uleb128 0x12
 2286 0aae F3090000 		.4byte	.LASF205
 2287 0ab2 01       		.sleb128 1
 2288 0ab3 12       		.uleb128 0x12
 2289 0ab4 75030000 		.4byte	.LASF206
 2290 0ab8 02       		.sleb128 2
 2291 0ab9 12       		.uleb128 0x12
 2292 0aba 7E080000 		.4byte	.LASF207
 2293 0abe 03       		.sleb128 3
 2294 0abf 12       		.uleb128 0x12
 2295 0ac0 CB050000 		.4byte	.LASF208
 2296 0ac4 04       		.sleb128 4
 2297 0ac5 12       		.uleb128 0x12
 2298 0ac6 EF030000 		.4byte	.LASF209
 2299 0aca 05       		.sleb128 5
 2300 0acb 00       		.byte	0
 2301 0acc 03       		.uleb128 0x3
 2302 0acd 93000000 		.4byte	.LASF210
 2303 0ad1 0B       		.byte	0xb
 2304 0ad2 55       		.byte	0x55
 2305 0ad3 9F0A0000 		.4byte	0xa9f
 2306 0ad7 17       		.uleb128 0x17
 2307 0ad8 A3030000 		.4byte	.LASF211
 2308 0adc 0C       		.byte	0xc
 2309 0add 2701     		.2byte	0x127
 2310 0adf 62000000 		.4byte	0x62
 2311 0ae3 17       		.uleb128 0x17
 2312 0ae4 7F070000 		.4byte	.LASF212
 2313 0ae8 0C       		.byte	0xc
 2314 0ae9 2C01     		.2byte	0x12c
 2315 0aeb 62000000 		.4byte	0x62
ARM GAS  /tmp/ccSwRXu6.s 			page 42


 2316 0aef 1B       		.uleb128 0x1b
 2317 0af0 01       		.byte	0x1
 2318 0af1 0C       		.byte	0xc
 2319 0af2 3301     		.2byte	0x133
 2320 0af4 050B0000 		.4byte	0xb05
 2321 0af8 12       		.uleb128 0x12
 2322 0af9 AF000000 		.4byte	.LASF213
 2323 0afd 00       		.sleb128 0
 2324 0afe 12       		.uleb128 0x12
 2325 0aff 81090000 		.4byte	.LASF214
 2326 0b03 01       		.sleb128 1
 2327 0b04 00       		.byte	0
 2328 0b05 17       		.uleb128 0x17
 2329 0b06 44030000 		.4byte	.LASF215
 2330 0b0a 0C       		.byte	0xc
 2331 0b0b 3601     		.2byte	0x136
 2332 0b0d EF0A0000 		.4byte	0xaef
 2333 0b11 17       		.uleb128 0x17
 2334 0b12 4C090000 		.4byte	.LASF216
 2335 0b16 0C       		.byte	0xc
 2336 0b17 3B01     		.2byte	0x13b
 2337 0b19 1D0B0000 		.4byte	0xb1d
 2338 0b1d 0B       		.uleb128 0xb
 2339 0b1e 4C090000 		.4byte	.LASF216
 2340 0b22 34       		.byte	0x34
 2341 0b23 0C       		.byte	0xc
 2342 0b24 9F01     		.2byte	0x19f
 2343 0b26 C10B0000 		.4byte	0xbc1
 2344 0b2a 16       		.uleb128 0x16
 2345 0b2b 06010000 		.4byte	.LASF217
 2346 0b2f 0C       		.byte	0xc
 2347 0b30 A301     		.2byte	0x1a3
 2348 0b32 CC0A0000 		.4byte	0xacc
 2349 0b36 02       		.byte	0x2
 2350 0b37 23       		.byte	0x23
 2351 0b38 00       		.uleb128 0
 2352 0b39 16       		.uleb128 0x16
 2353 0b3a FF000000 		.4byte	.LASF218
 2354 0b3e 0C       		.byte	0xc
 2355 0b3f A701     		.2byte	0x1a7
 2356 0b41 F80C0000 		.4byte	0xcf8
 2357 0b45 02       		.byte	0x2
 2358 0b46 23       		.byte	0x23
 2359 0b47 04       		.uleb128 0x4
 2360 0b48 16       		.uleb128 0x16
 2361 0b49 41040000 		.4byte	.LASF219
 2362 0b4d 0C       		.byte	0xc
 2363 0b4e AB01     		.2byte	0x1ab
 2364 0b50 EF0B0000 		.4byte	0xbef
 2365 0b54 02       		.byte	0x2
 2366 0b55 23       		.byte	0x23
 2367 0b56 08       		.uleb128 0x8
 2368 0b57 16       		.uleb128 0x16
 2369 0b58 E1060000 		.4byte	.LASF220
 2370 0b5c 0C       		.byte	0xc
 2371 0b5d AF01     		.2byte	0x1af
 2372 0b5f 30000000 		.4byte	0x30
ARM GAS  /tmp/ccSwRXu6.s 			page 43


 2373 0b63 02       		.byte	0x2
 2374 0b64 23       		.byte	0x23
 2375 0b65 0C       		.uleb128 0xc
 2376 0b66 16       		.uleb128 0x16
 2377 0b67 350A0000 		.4byte	.LASF221
 2378 0b6b 0C       		.byte	0xc
 2379 0b6c B301     		.2byte	0x1b3
 2380 0b6e 030D0000 		.4byte	0xd03
 2381 0b72 02       		.byte	0x2
 2382 0b73 23       		.byte	0x23
 2383 0b74 10       		.uleb128 0x10
 2384 0b75 16       		.uleb128 0x16
 2385 0b76 430A0000 		.4byte	.LASF222
 2386 0b7a 0C       		.byte	0xc
 2387 0b7b B801     		.2byte	0x1b8
 2388 0b7d 65020000 		.4byte	0x265
 2389 0b81 02       		.byte	0x2
 2390 0b82 23       		.byte	0x23
 2391 0b83 14       		.uleb128 0x14
 2392 0b84 16       		.uleb128 0x16
 2393 0b85 E7060000 		.4byte	.LASF223
 2394 0b89 0C       		.byte	0xc
 2395 0b8a BF01     		.2byte	0x1bf
 2396 0b8c A4030000 		.4byte	0x3a4
 2397 0b90 02       		.byte	0x2
 2398 0b91 23       		.byte	0x23
 2399 0b92 18       		.uleb128 0x18
 2400 0b93 0C       		.uleb128 0xc
 2401 0b94 61646300 		.ascii	"adc\000"
 2402 0b98 0C       		.byte	0xc
 2403 0b99 CB01     		.2byte	0x1cb
 2404 0b9b 0E0D0000 		.4byte	0xd0e
 2405 0b9f 02       		.byte	0x2
 2406 0ba0 23       		.byte	0x23
 2407 0ba1 28       		.uleb128 0x28
 2408 0ba2 16       		.uleb128 0x16
 2409 0ba3 2C050000 		.4byte	.LASF224
 2410 0ba7 0C       		.byte	0xc
 2411 0ba8 CF01     		.2byte	0x1cf
 2412 0baa 140D0000 		.4byte	0xd14
 2413 0bae 02       		.byte	0x2
 2414 0baf 23       		.byte	0x23
 2415 0bb0 2C       		.uleb128 0x2c
 2416 0bb1 16       		.uleb128 0x16
 2417 0bb2 C0010000 		.4byte	.LASF225
 2418 0bb6 0C       		.byte	0xc
 2419 0bb7 D301     		.2byte	0x1d3
 2420 0bb9 86000000 		.4byte	0x86
 2421 0bbd 02       		.byte	0x2
 2422 0bbe 23       		.byte	0x23
 2423 0bbf 30       		.uleb128 0x30
 2424 0bc0 00       		.byte	0
 2425 0bc1 17       		.uleb128 0x17
 2426 0bc2 63000000 		.4byte	.LASF226
 2427 0bc6 0C       		.byte	0xc
 2428 0bc7 4501     		.2byte	0x145
 2429 0bc9 CD0B0000 		.4byte	0xbcd
ARM GAS  /tmp/ccSwRXu6.s 			page 44


 2430 0bcd 09       		.uleb128 0x9
 2431 0bce 04       		.byte	0x4
 2432 0bcf D30B0000 		.4byte	0xbd3
 2433 0bd3 18       		.uleb128 0x18
 2434 0bd4 01       		.byte	0x1
 2435 0bd5 E90B0000 		.4byte	0xbe9
 2436 0bd9 19       		.uleb128 0x19
 2437 0bda E90B0000 		.4byte	0xbe9
 2438 0bde 19       		.uleb128 0x19
 2439 0bdf EF0B0000 		.4byte	0xbef
 2440 0be3 19       		.uleb128 0x19
 2441 0be4 30000000 		.4byte	0x30
 2442 0be8 00       		.byte	0
 2443 0be9 09       		.uleb128 0x9
 2444 0bea 04       		.byte	0x4
 2445 0beb 110B0000 		.4byte	0xb11
 2446 0bef 09       		.uleb128 0x9
 2447 0bf0 04       		.byte	0x4
 2448 0bf1 D70A0000 		.4byte	0xad7
 2449 0bf5 17       		.uleb128 0x17
 2450 0bf6 B9060000 		.4byte	.LASF227
 2451 0bfa 0C       		.byte	0xc
 2452 0bfb 4E01     		.2byte	0x14e
 2453 0bfd 010C0000 		.4byte	0xc01
 2454 0c01 09       		.uleb128 0x9
 2455 0c02 04       		.byte	0x4
 2456 0c03 070C0000 		.4byte	0xc07
 2457 0c07 18       		.uleb128 0x18
 2458 0c08 01       		.byte	0x1
 2459 0c09 180C0000 		.4byte	0xc18
 2460 0c0d 19       		.uleb128 0x19
 2461 0c0e E90B0000 		.4byte	0xbe9
 2462 0c12 19       		.uleb128 0x19
 2463 0c13 050B0000 		.4byte	0xb05
 2464 0c17 00       		.byte	0
 2465 0c18 15       		.uleb128 0x15
 2466 0c19 28       		.byte	0x28
 2467 0c1a 0C       		.byte	0xc
 2468 0c1b 5801     		.2byte	0x158
 2469 0c1d C70C0000 		.4byte	0xcc7
 2470 0c21 16       		.uleb128 0x16
 2471 0c22 04040000 		.4byte	.LASF228
 2472 0c26 0C       		.byte	0xc
 2473 0c27 5C01     		.2byte	0x15c
 2474 0c29 A6000000 		.4byte	0xa6
 2475 0c2d 02       		.byte	0x2
 2476 0c2e 23       		.byte	0x23
 2477 0c2f 00       		.uleb128 0
 2478 0c30 16       		.uleb128 0x16
 2479 0c31 AE070000 		.4byte	.LASF229
 2480 0c35 0C       		.byte	0xc
 2481 0c36 6001     		.2byte	0x160
 2482 0c38 E30A0000 		.4byte	0xae3
 2483 0c3c 02       		.byte	0x2
 2484 0c3d 23       		.byte	0x23
 2485 0c3e 02       		.uleb128 0x2
 2486 0c3f 16       		.uleb128 0x16
ARM GAS  /tmp/ccSwRXu6.s 			page 45


 2487 0c40 5B010000 		.4byte	.LASF230
 2488 0c44 0C       		.byte	0xc
 2489 0c45 6401     		.2byte	0x164
 2490 0c47 C10B0000 		.4byte	0xbc1
 2491 0c4b 02       		.byte	0x2
 2492 0c4c 23       		.byte	0x23
 2493 0c4d 04       		.uleb128 0x4
 2494 0c4e 16       		.uleb128 0x16
 2495 0c4f 2B010000 		.4byte	.LASF231
 2496 0c53 0C       		.byte	0xc
 2497 0c54 6801     		.2byte	0x168
 2498 0c56 F50B0000 		.4byte	0xbf5
 2499 0c5a 02       		.byte	0x2
 2500 0c5b 23       		.byte	0x23
 2501 0c5c 08       		.uleb128 0x8
 2502 0c5d 0C       		.uleb128 0xc
 2503 0c5e 63723100 		.ascii	"cr1\000"
 2504 0c62 0C       		.byte	0xc
 2505 0c63 6F01     		.2byte	0x16f
 2506 0c65 86000000 		.4byte	0x86
 2507 0c69 02       		.byte	0x2
 2508 0c6a 23       		.byte	0x23
 2509 0c6b 0C       		.uleb128 0xc
 2510 0c6c 0C       		.uleb128 0xc
 2511 0c6d 63723200 		.ascii	"cr2\000"
 2512 0c71 0C       		.byte	0xc
 2513 0c72 7601     		.2byte	0x176
 2514 0c74 86000000 		.4byte	0x86
 2515 0c78 02       		.byte	0x2
 2516 0c79 23       		.byte	0x23
 2517 0c7a 10       		.uleb128 0x10
 2518 0c7b 16       		.uleb128 0x16
 2519 0c7c D8050000 		.4byte	.LASF232
 2520 0c80 0C       		.byte	0xc
 2521 0c81 7C01     		.2byte	0x17c
 2522 0c83 86000000 		.4byte	0x86
 2523 0c87 02       		.byte	0x2
 2524 0c88 23       		.byte	0x23
 2525 0c89 14       		.uleb128 0x14
 2526 0c8a 16       		.uleb128 0x16
 2527 0c8b DE050000 		.4byte	.LASF233
 2528 0c8f 0C       		.byte	0xc
 2529 0c90 8201     		.2byte	0x182
 2530 0c92 86000000 		.4byte	0x86
 2531 0c96 02       		.byte	0x2
 2532 0c97 23       		.byte	0x23
 2533 0c98 18       		.uleb128 0x18
 2534 0c99 16       		.uleb128 0x16
 2535 0c9a 1F000000 		.4byte	.LASF234
 2536 0c9e 0C       		.byte	0xc
 2537 0c9f 8701     		.2byte	0x187
 2538 0ca1 86000000 		.4byte	0x86
 2539 0ca5 02       		.byte	0x2
 2540 0ca6 23       		.byte	0x23
 2541 0ca7 1C       		.uleb128 0x1c
 2542 0ca8 16       		.uleb128 0x16
 2543 0ca9 24000000 		.4byte	.LASF235
ARM GAS  /tmp/ccSwRXu6.s 			page 46


 2544 0cad 0C       		.byte	0xc
 2545 0cae 8C01     		.2byte	0x18c
 2546 0cb0 86000000 		.4byte	0x86
 2547 0cb4 02       		.byte	0x2
 2548 0cb5 23       		.byte	0x23
 2549 0cb6 20       		.uleb128 0x20
 2550 0cb7 16       		.uleb128 0x16
 2551 0cb8 FF030000 		.4byte	.LASF236
 2552 0cbc 0C       		.byte	0xc
 2553 0cbd 9101     		.2byte	0x191
 2554 0cbf 86000000 		.4byte	0x86
 2555 0cc3 02       		.byte	0x2
 2556 0cc4 23       		.byte	0x23
 2557 0cc5 24       		.uleb128 0x24
 2558 0cc6 00       		.byte	0
 2559 0cc7 17       		.uleb128 0x17
 2560 0cc8 B8050000 		.4byte	.LASF237
 2561 0ccc 0C       		.byte	0xc
 2562 0ccd 9201     		.2byte	0x192
 2563 0ccf 180C0000 		.4byte	0xc18
 2564 0cd3 15       		.uleb128 0x15
 2565 0cd4 04       		.byte	0x4
 2566 0cd5 0C       		.byte	0xc
 2567 0cd6 9801     		.2byte	0x198
 2568 0cd8 EC0C0000 		.4byte	0xcec
 2569 0cdc 16       		.uleb128 0x16
 2570 0cdd ED090000 		.4byte	.LASF238
 2571 0ce1 0C       		.byte	0xc
 2572 0ce2 9901     		.2byte	0x199
 2573 0ce4 86000000 		.4byte	0x86
 2574 0ce8 02       		.byte	0x2
 2575 0ce9 23       		.byte	0x23
 2576 0cea 00       		.uleb128 0
 2577 0ceb 00       		.byte	0
 2578 0cec 17       		.uleb128 0x17
 2579 0ced 600C0000 		.4byte	.LASF239
 2580 0cf1 0C       		.byte	0xc
 2581 0cf2 9A01     		.2byte	0x19a
 2582 0cf4 D30C0000 		.4byte	0xcd3
 2583 0cf8 09       		.uleb128 0x9
 2584 0cf9 04       		.byte	0x4
 2585 0cfa FE0C0000 		.4byte	0xcfe
 2586 0cfe 10       		.uleb128 0x10
 2587 0cff EC0C0000 		.4byte	0xcec
 2588 0d03 09       		.uleb128 0x9
 2589 0d04 04       		.byte	0x4
 2590 0d05 090D0000 		.4byte	0xd09
 2591 0d09 10       		.uleb128 0x10
 2592 0d0a C70C0000 		.4byte	0xcc7
 2593 0d0e 09       		.uleb128 0x9
 2594 0d0f 04       		.byte	0x4
 2595 0d10 80070000 		.4byte	0x780
 2596 0d14 09       		.uleb128 0x9
 2597 0d15 04       		.byte	0x4
 2598 0d16 1A0D0000 		.4byte	0xd1a
 2599 0d1a 10       		.uleb128 0x10
 2600 0d1b 720A0000 		.4byte	0xa72
ARM GAS  /tmp/ccSwRXu6.s 			page 47


 2601 0d1f 1C       		.uleb128 0x1c
 2602 0d20 01       		.byte	0x1
 2603 0d21 56090000 		.4byte	.LASF240
 2604 0d25 01       		.byte	0x1
 2605 0d26 AB       		.byte	0xab
 2606 0d27 01       		.byte	0x1
 2607 0d28 00000000 		.4byte	.LFB120
 2608 0d2c 38000000 		.4byte	.LFE120
 2609 0d30 00000000 		.4byte	.LLST0
 2610 0d34 01       		.byte	0x1
 2611 0d35 640D0000 		.4byte	0xd64
 2612 0d39 1D       		.uleb128 0x1d
 2613 0d3a 10000000 		.4byte	.LVL0
 2614 0d3e 6C110000 		.4byte	0x116c
 2615 0d42 4D0D0000 		.4byte	0xd4d
 2616 0d46 1E       		.uleb128 0x1e
 2617 0d47 01       		.byte	0x1
 2618 0d48 50       		.byte	0x50
 2619 0d49 02       		.byte	0x2
 2620 0d4a 74       		.byte	0x74
 2621 0d4b 00       		.sleb128 0
 2622 0d4c 00       		.byte	0
 2623 0d4d 1F       		.uleb128 0x1f
 2624 0d4e 34000000 		.4byte	.LVL1
 2625 0d52 01       		.byte	0x1
 2626 0d53 81110000 		.4byte	0x1181
 2627 0d57 1E       		.uleb128 0x1e
 2628 0d58 01       		.byte	0x1
 2629 0d59 51       		.byte	0x51
 2630 0d5a 02       		.byte	0x2
 2631 0d5b 08       		.byte	0x8
 2632 0d5c 60       		.byte	0x60
 2633 0d5d 1E       		.uleb128 0x1e
 2634 0d5e 01       		.byte	0x1
 2635 0d5f 50       		.byte	0x50
 2636 0d60 01       		.byte	0x1
 2637 0d61 42       		.byte	0x42
 2638 0d62 00       		.byte	0
 2639 0d63 00       		.byte	0
 2640 0d64 1C       		.uleb128 0x1c
 2641 0d65 01       		.byte	0x1
 2642 0d66 32000000 		.4byte	.LASF241
 2643 0d6a 01       		.byte	0x1
 2644 0d6b E0       		.byte	0xe0
 2645 0d6c 01       		.byte	0x1
 2646 0d6d 00000000 		.4byte	.LFB121
 2647 0d71 68000000 		.4byte	.LFE121
 2648 0d75 20000000 		.4byte	.LLST1
 2649 0d79 01       		.byte	0x1
 2650 0d7a BF0D0000 		.4byte	0xdbf
 2651 0d7e 20       		.uleb128 0x20
 2652 0d7f B4060000 		.4byte	.LASF243
 2653 0d83 01       		.byte	0x1
 2654 0d84 E0       		.byte	0xe0
 2655 0d85 E90B0000 		.4byte	0xbe9
 2656 0d89 40000000 		.4byte	.LLST2
 2657 0d8d 21       		.uleb128 0x21
ARM GAS  /tmp/ccSwRXu6.s 			page 48


 2658 0d8e 34000000 		.4byte	.LBB2
 2659 0d92 68000000 		.4byte	.LBE2
 2660 0d96 22       		.uleb128 0x22
 2661 0d97 6200     		.ascii	"b\000"
 2662 0d99 01       		.byte	0x1
 2663 0d9a E6       		.byte	0xe6
 2664 0d9b A6000000 		.4byte	0xa6
 2665 0d9f 23       		.uleb128 0x23
 2666 0da0 40000000 		.4byte	.LVL4
 2667 0da4 9B110000 		.4byte	0x119b
 2668 0da8 1E       		.uleb128 0x1e
 2669 0da9 01       		.byte	0x1
 2670 0daa 53       		.byte	0x53
 2671 0dab 02       		.byte	0x2
 2672 0dac 74       		.byte	0x74
 2673 0dad 00       		.sleb128 0
 2674 0dae 1E       		.uleb128 0x1e
 2675 0daf 01       		.byte	0x1
 2676 0db0 52       		.byte	0x52
 2677 0db1 05       		.byte	0x5
 2678 0db2 03       		.byte	0x3
 2679 0db3 00000000 		.4byte	adc_lld_serve_rx_interrupt
 2680 0db7 1E       		.uleb128 0x1e
 2681 0db8 01       		.byte	0x1
 2682 0db9 51       		.byte	0x51
 2683 0dba 01       		.byte	0x1
 2684 0dbb 36       		.byte	0x36
 2685 0dbc 00       		.byte	0
 2686 0dbd 00       		.byte	0
 2687 0dbe 00       		.byte	0
 2688 0dbf 24       		.uleb128 0x24
 2689 0dc0 01       		.byte	0x1
 2690 0dc1 17020000 		.4byte	.LASF242
 2691 0dc5 01       		.byte	0x1
 2692 0dc6 1F01     		.2byte	0x11f
 2693 0dc8 01       		.byte	0x1
 2694 0dc9 00000000 		.4byte	.LFB122
 2695 0dcd 38000000 		.4byte	.LFE122
 2696 0dd1 5E000000 		.4byte	.LLST3
 2697 0dd5 01       		.byte	0x1
 2698 0dd6 F40D0000 		.4byte	0xdf4
 2699 0dda 25       		.uleb128 0x25
 2700 0ddb B4060000 		.4byte	.LASF243
 2701 0ddf 01       		.byte	0x1
 2702 0de0 1F01     		.2byte	0x11f
 2703 0de2 E90B0000 		.4byte	0xbe9
 2704 0de6 7E000000 		.4byte	.LLST4
 2705 0dea 26       		.uleb128 0x26
 2706 0deb 12000000 		.4byte	.LVL9
 2707 0def C3110000 		.4byte	0x11c3
 2708 0df3 00       		.byte	0
 2709 0df4 24       		.uleb128 0x24
 2710 0df5 01       		.byte	0x1
 2711 0df6 E4050000 		.4byte	.LASF244
 2712 0dfa 01       		.byte	0x1
 2713 0dfb 3F01     		.2byte	0x13f
 2714 0dfd 01       		.byte	0x1
ARM GAS  /tmp/ccSwRXu6.s 			page 49


 2715 0dfe 00000000 		.4byte	.LFB123
 2716 0e02 80000000 		.4byte	.LFE123
 2717 0e06 B2000000 		.4byte	.LLST5
 2718 0e0a 01       		.byte	0x1
 2719 0e0b 400E0000 		.4byte	0xe40
 2720 0e0f 25       		.uleb128 0x25
 2721 0e10 B4060000 		.4byte	.LASF243
 2722 0e14 01       		.byte	0x1
 2723 0e15 3F01     		.2byte	0x13f
 2724 0e17 E90B0000 		.4byte	0xbe9
 2725 0e1b D2000000 		.4byte	.LLST6
 2726 0e1f 27       		.uleb128 0x27
 2727 0e20 770A0000 		.4byte	.LASF245
 2728 0e24 01       		.byte	0x1
 2729 0e25 4001     		.2byte	0x140
 2730 0e27 86000000 		.4byte	0x86
 2731 0e2b F3000000 		.4byte	.LLST7
 2732 0e2f 27       		.uleb128 0x27
 2733 0e30 350A0000 		.4byte	.LASF221
 2734 0e34 01       		.byte	0x1
 2735 0e35 4101     		.2byte	0x141
 2736 0e37 030D0000 		.4byte	0xd03
 2737 0e3b 23010000 		.4byte	.LLST8
 2738 0e3f 00       		.byte	0
 2739 0e40 24       		.uleb128 0x24
 2740 0e41 01       		.byte	0x1
 2741 0e42 1B080000 		.4byte	.LASF246
 2742 0e46 01       		.byte	0x1
 2743 0e47 6D01     		.2byte	0x16d
 2744 0e49 01       		.byte	0x1
 2745 0e4a 00000000 		.4byte	.LFB124
 2746 0e4e 30000000 		.4byte	.LFE124
 2747 0e52 51010000 		.4byte	.LLST9
 2748 0e56 01       		.byte	0x1
 2749 0e57 6C0E0000 		.4byte	0xe6c
 2750 0e5b 25       		.uleb128 0x25
 2751 0e5c B4060000 		.4byte	.LASF243
 2752 0e60 01       		.byte	0x1
 2753 0e61 6D01     		.2byte	0x16d
 2754 0e63 E90B0000 		.4byte	0xbe9
 2755 0e67 71010000 		.4byte	.LLST10
 2756 0e6b 00       		.byte	0
 2757 0e6c 28       		.uleb128 0x28
 2758 0e6d 670B0000 		.4byte	.LASF267
 2759 0e71 01       		.byte	0x1
 2760 0e72 4C       		.byte	0x4c
 2761 0e73 01       		.byte	0x1
 2762 0e74 00000000 		.4byte	.LFB118
 2763 0e78 FA000000 		.4byte	.LFE118
 2764 0e7c 92010000 		.4byte	.LLST11
 2765 0e80 01       		.byte	0x1
 2766 0e81 16100000 		.4byte	0x1016
 2767 0e85 20       		.uleb128 0x20
 2768 0e86 B4060000 		.4byte	.LASF243
 2769 0e8a 01       		.byte	0x1
 2770 0e8b 4C       		.byte	0x4c
 2771 0e8c E90B0000 		.4byte	0xbe9
ARM GAS  /tmp/ccSwRXu6.s 			page 50


 2772 0e90 B2010000 		.4byte	.LLST12
 2773 0e94 20       		.uleb128 0x20
 2774 0e95 F9030000 		.4byte	.LASF247
 2775 0e99 01       		.byte	0x1
 2776 0e9a 4C       		.byte	0x4c
 2777 0e9b 86000000 		.4byte	0x86
 2778 0e9f E6010000 		.4byte	.LLST13
 2779 0ea3 29       		.uleb128 0x29
 2780 0ea4 3A000000 		.4byte	.LBB3
 2781 0ea8 4E000000 		.4byte	.LBE3
 2782 0eac DE0E0000 		.4byte	0xede
 2783 0eb0 2A       		.uleb128 0x2a
 2784 0eb1 92090000 		.4byte	.LASF248
 2785 0eb5 01       		.byte	0x1
 2786 0eb6 5E       		.byte	0x5e
 2787 0eb7 30000000 		.4byte	0x30
 2788 0ebb 5A020000 		.4byte	.LLST14
 2789 0ebf 2A       		.uleb128 0x2a
 2790 0ec0 36090000 		.4byte	.LASF249
 2791 0ec4 01       		.byte	0x1
 2792 0ec5 5E       		.byte	0x5e
 2793 0ec6 30000000 		.4byte	0x30
 2794 0eca 6D020000 		.4byte	.LLST15
 2795 0ece 2B       		.uleb128 0x2b
 2796 0ecf 4C000000 		.4byte	.LVL26
 2797 0ed3 02       		.byte	0x2
 2798 0ed4 75       		.byte	0x75
 2799 0ed5 00       		.sleb128 0
 2800 0ed6 1E       		.uleb128 0x1e
 2801 0ed7 01       		.byte	0x1
 2802 0ed8 50       		.byte	0x50
 2803 0ed9 02       		.byte	0x2
 2804 0eda 74       		.byte	0x74
 2805 0edb 00       		.sleb128 0
 2806 0edc 00       		.byte	0
 2807 0edd 00       		.byte	0
 2808 0ede 29       		.uleb128 0x29
 2809 0edf 70000000 		.4byte	.LBB4
 2810 0ee3 76000000 		.4byte	.LBE4
 2811 0ee7 FB0E0000 		.4byte	0xefb
 2812 0eeb 2C       		.uleb128 0x2c
 2813 0eec 746D7000 		.ascii	"tmp\000"
 2814 0ef0 01       		.byte	0x1
 2815 0ef1 52       		.byte	0x52
 2816 0ef2 86000000 		.4byte	0x86
 2817 0ef6 8E020000 		.4byte	.LLST16
 2818 0efa 00       		.byte	0
 2819 0efb 29       		.uleb128 0x29
 2820 0efc 7A000000 		.4byte	.LBB5
 2821 0f00 88000000 		.4byte	.LBE5
 2822 0f04 200F0000 		.4byte	0xf20
 2823 0f08 2C       		.uleb128 0x2c
 2824 0f09 747000   		.ascii	"tp\000"
 2825 0f0c 01       		.byte	0x1
 2826 0f0d 52       		.byte	0x52
 2827 0f0e 65020000 		.4byte	0x265
 2828 0f12 A1020000 		.4byte	.LLST17
ARM GAS  /tmp/ccSwRXu6.s 			page 51


 2829 0f16 26       		.uleb128 0x26
 2830 0f17 88000000 		.4byte	.LVL34
 2831 0f1b D8110000 		.4byte	0x11d8
 2832 0f1f 00       		.byte	0
 2833 0f20 29       		.uleb128 0x29
 2834 0f21 88000000 		.4byte	.LBB6
 2835 0f25 90000000 		.4byte	.LBE6
 2836 0f29 3D0F0000 		.4byte	0xf3d
 2837 0f2d 2C       		.uleb128 0x2c
 2838 0f2e 746D7000 		.ascii	"tmp\000"
 2839 0f32 01       		.byte	0x1
 2840 0f33 5E       		.byte	0x5e
 2841 0f34 86000000 		.4byte	0x86
 2842 0f38 B4020000 		.4byte	.LLST18
 2843 0f3c 00       		.byte	0
 2844 0f3d 29       		.uleb128 0x29
 2845 0f3e AE000000 		.4byte	.LBB7
 2846 0f42 C0000000 		.4byte	.LBE7
 2847 0f46 750F0000 		.4byte	0xf75
 2848 0f4a 2A       		.uleb128 0x2a
 2849 0f4b 92090000 		.4byte	.LASF248
 2850 0f4f 01       		.byte	0x1
 2851 0f50 5E       		.byte	0x5e
 2852 0f51 30000000 		.4byte	0x30
 2853 0f55 C7020000 		.4byte	.LLST19
 2854 0f59 2A       		.uleb128 0x2a
 2855 0f5a 36090000 		.4byte	.LASF249
 2856 0f5e 01       		.byte	0x1
 2857 0f5f 5E       		.byte	0x5e
 2858 0f60 30000000 		.4byte	0x30
 2859 0f64 DA020000 		.4byte	.LLST20
 2860 0f68 2D       		.uleb128 0x2d
 2861 0f69 C0000000 		.4byte	.LVL43
 2862 0f6d 1E       		.uleb128 0x1e
 2863 0f6e 01       		.byte	0x1
 2864 0f6f 50       		.byte	0x50
 2865 0f70 02       		.byte	0x2
 2866 0f71 74       		.byte	0x74
 2867 0f72 00       		.sleb128 0
 2868 0f73 00       		.byte	0
 2869 0f74 00       		.byte	0
 2870 0f75 29       		.uleb128 0x29
 2871 0f76 C6000000 		.4byte	.LBB8
 2872 0f7a CC000000 		.4byte	.LBE8
 2873 0f7e 920F0000 		.4byte	0xf92
 2874 0f82 2C       		.uleb128 0x2c
 2875 0f83 746D7000 		.ascii	"tmp\000"
 2876 0f87 01       		.byte	0x1
 2877 0f88 5E       		.byte	0x5e
 2878 0f89 86000000 		.4byte	0x86
 2879 0f8d FB020000 		.4byte	.LLST21
 2880 0f91 00       		.byte	0
 2881 0f92 29       		.uleb128 0x29
 2882 0f93 D2000000 		.4byte	.LBB9
 2883 0f97 E0000000 		.4byte	.LBE9
 2884 0f9b B70F0000 		.4byte	0xfb7
 2885 0f9f 2C       		.uleb128 0x2c
ARM GAS  /tmp/ccSwRXu6.s 			page 52


 2886 0fa0 747000   		.ascii	"tp\000"
 2887 0fa3 01       		.byte	0x1
 2888 0fa4 5E       		.byte	0x5e
 2889 0fa5 65020000 		.4byte	0x265
 2890 0fa9 19030000 		.4byte	.LLST22
 2891 0fad 26       		.uleb128 0x26
 2892 0fae DE000000 		.4byte	.LVL47
 2893 0fb2 D8110000 		.4byte	0x11d8
 2894 0fb6 00       		.byte	0
 2895 0fb7 2E       		.uleb128 0x2e
 2896 0fb8 22000000 		.4byte	.LVL23
 2897 0fbc C70F0000 		.4byte	0xfc7
 2898 0fc0 1E       		.uleb128 0x1e
 2899 0fc1 01       		.byte	0x1
 2900 0fc2 50       		.byte	0x50
 2901 0fc3 02       		.byte	0x2
 2902 0fc4 74       		.byte	0x74
 2903 0fc5 00       		.sleb128 0
 2904 0fc6 00       		.byte	0
 2905 0fc7 26       		.uleb128 0x26
 2906 0fc8 52000000 		.4byte	.LVL28
 2907 0fcc 400E0000 		.4byte	0xe40
 2908 0fd0 2E       		.uleb128 0x2e
 2909 0fd1 62000000 		.4byte	.LVL29
 2910 0fd5 E50F0000 		.4byte	0xfe5
 2911 0fd9 1E       		.uleb128 0x1e
 2912 0fda 01       		.byte	0x1
 2913 0fdb 51       		.byte	0x51
 2914 0fdc 01       		.byte	0x1
 2915 0fdd 30       		.byte	0x30
 2916 0fde 1E       		.uleb128 0x1e
 2917 0fdf 01       		.byte	0x1
 2918 0fe0 50       		.byte	0x50
 2919 0fe1 02       		.byte	0x2
 2920 0fe2 74       		.byte	0x74
 2921 0fe3 00       		.sleb128 0
 2922 0fe4 00       		.byte	0
 2923 0fe5 2E       		.uleb128 0x2e
 2924 0fe6 96000000 		.4byte	.LVL38
 2925 0fea F50F0000 		.4byte	0xff5
 2926 0fee 1E       		.uleb128 0x1e
 2927 0fef 01       		.byte	0x1
 2928 0ff0 50       		.byte	0x50
 2929 0ff1 02       		.byte	0x2
 2930 0ff2 74       		.byte	0x74
 2931 0ff3 00       		.sleb128 0
 2932 0ff4 00       		.byte	0
 2933 0ff5 1D       		.uleb128 0x1d
 2934 0ff6 9E000000 		.4byte	.LVL40
 2935 0ffa 400E0000 		.4byte	0xe40
 2936 0ffe 09100000 		.4byte	0x1009
 2937 1002 1E       		.uleb128 0x1e
 2938 1003 01       		.byte	0x1
 2939 1004 50       		.byte	0x50
 2940 1005 02       		.byte	0x2
 2941 1006 74       		.byte	0x74
 2942 1007 00       		.sleb128 0
ARM GAS  /tmp/ccSwRXu6.s 			page 53


 2943 1008 00       		.byte	0
 2944 1009 2D       		.uleb128 0x2d
 2945 100a F0000000 		.4byte	.LVL49
 2946 100e 1E       		.uleb128 0x1e
 2947 100f 01       		.byte	0x1
 2948 1010 50       		.byte	0x50
 2949 1011 02       		.byte	0x2
 2950 1012 74       		.byte	0x74
 2951 1013 00       		.sleb128 0
 2952 1014 00       		.byte	0
 2953 1015 00       		.byte	0
 2954 1016 1C       		.uleb128 0x1c
 2955 1017 01       		.byte	0x1
 2956 1018 E3010000 		.4byte	.LASF250
 2957 101c 01       		.byte	0x1
 2958 101d 6F       		.byte	0x6f
 2959 101e 01       		.byte	0x1
 2960 101f 00000000 		.4byte	.LFB119
 2961 1023 74000000 		.4byte	.LFE119
 2962 1027 2C030000 		.4byte	.LLST23
 2963 102b 01       		.byte	0x1
 2964 102c D1100000 		.4byte	0x10d1
 2965 1030 2C       		.uleb128 0x2c
 2966 1031 737200   		.ascii	"sr\000"
 2967 1034 01       		.byte	0x1
 2968 1035 70       		.byte	0x70
 2969 1036 86000000 		.4byte	0x86
 2970 103a 4C030000 		.4byte	.LLST24
 2971 103e 29       		.uleb128 0x29
 2972 103f 42000000 		.4byte	.LBB10
 2973 1043 48000000 		.4byte	.LBE10
 2974 1047 5B100000 		.4byte	0x105b
 2975 104b 2C       		.uleb128 0x2c
 2976 104c 746D7000 		.ascii	"tmp\000"
 2977 1050 01       		.byte	0x1
 2978 1051 7D       		.byte	0x7d
 2979 1052 86000000 		.4byte	0x86
 2980 1056 5F030000 		.4byte	.LLST25
 2981 105a 00       		.byte	0
 2982 105b 29       		.uleb128 0x29
 2983 105c 4C000000 		.4byte	.LBB11
 2984 1060 5A000000 		.4byte	.LBE11
 2985 1064 80100000 		.4byte	0x1080
 2986 1068 2C       		.uleb128 0x2c
 2987 1069 747000   		.ascii	"tp\000"
 2988 106c 01       		.byte	0x1
 2989 106d 7D       		.byte	0x7d
 2990 106e 65020000 		.4byte	0x265
 2991 1072 7D030000 		.4byte	.LLST26
 2992 1076 26       		.uleb128 0x26
 2993 1077 5A000000 		.4byte	.LVL58
 2994 107b D8110000 		.4byte	0x11d8
 2995 107f 00       		.byte	0
 2996 1080 29       		.uleb128 0x29
 2997 1081 5A000000 		.4byte	.LBB12
 2998 1085 60000000 		.4byte	.LBE12
 2999 1089 9D100000 		.4byte	0x109d
ARM GAS  /tmp/ccSwRXu6.s 			page 54


 3000 108d 2C       		.uleb128 0x2c
 3001 108e 746D7000 		.ascii	"tmp\000"
 3002 1092 01       		.byte	0x1
 3003 1093 7D       		.byte	0x7d
 3004 1094 86000000 		.4byte	0x86
 3005 1098 90030000 		.4byte	.LLST27
 3006 109c 00       		.byte	0
 3007 109d 1D       		.uleb128 0x1d
 3008 109e 28000000 		.4byte	.LVL52
 3009 10a2 400E0000 		.4byte	0xe40
 3010 10a6 B1100000 		.4byte	0x10b1
 3011 10aa 1E       		.uleb128 0x1e
 3012 10ab 01       		.byte	0x1
 3013 10ac 50       		.byte	0x50
 3014 10ad 02       		.byte	0x2
 3015 10ae 74       		.byte	0x74
 3016 10af 00       		.sleb128 0
 3017 10b0 00       		.byte	0
 3018 10b1 2E       		.uleb128 0x2e
 3019 10b2 38000000 		.4byte	.LVL53
 3020 10b6 C6100000 		.4byte	0x10c6
 3021 10ba 1E       		.uleb128 0x1e
 3022 10bb 01       		.byte	0x1
 3023 10bc 51       		.byte	0x51
 3024 10bd 01       		.byte	0x1
 3025 10be 31       		.byte	0x31
 3026 10bf 1E       		.uleb128 0x1e
 3027 10c0 01       		.byte	0x1
 3028 10c1 50       		.byte	0x50
 3029 10c2 02       		.byte	0x2
 3030 10c3 74       		.byte	0x74
 3031 10c4 00       		.sleb128 0
 3032 10c5 00       		.byte	0
 3033 10c6 2F       		.uleb128 0x2f
 3034 10c7 68000000 		.4byte	.LVL61
 3035 10cb 01       		.byte	0x1
 3036 10cc F0110000 		.4byte	0x11f0
 3037 10d0 00       		.byte	0
 3038 10d1 30       		.uleb128 0x30
 3039 10d2 01       		.byte	0x1
 3040 10d3 4F020000 		.4byte	.LASF251
 3041 10d7 01       		.byte	0x1
 3042 10d8 7B01     		.2byte	0x17b
 3043 10da 01       		.byte	0x1
 3044 10db 00000000 		.4byte	.LFB125
 3045 10df 12000000 		.4byte	.LFE125
 3046 10e3 02       		.byte	0x2
 3047 10e4 7D       		.byte	0x7d
 3048 10e5 00       		.sleb128 0
 3049 10e6 01       		.byte	0x1
 3050 10e7 30       		.uleb128 0x30
 3051 10e8 01       		.byte	0x1
 3052 10e9 290C0000 		.4byte	.LASF252
 3053 10ed 01       		.byte	0x1
 3054 10ee 8601     		.2byte	0x186
 3055 10f0 01       		.byte	0x1
 3056 10f1 00000000 		.4byte	.LFB126
ARM GAS  /tmp/ccSwRXu6.s 			page 55


 3057 10f5 12000000 		.4byte	.LFE126
 3058 10f9 02       		.byte	0x2
 3059 10fa 7D       		.byte	0x7d
 3060 10fb 00       		.sleb128 0
 3061 10fc 01       		.byte	0x1
 3062 10fd 30       		.uleb128 0x30
 3063 10fe 01       		.byte	0x1
 3064 10ff A1090000 		.4byte	.LASF253
 3065 1103 01       		.byte	0x1
 3066 1104 9101     		.2byte	0x191
 3067 1106 01       		.byte	0x1
 3068 1107 00000000 		.4byte	.LFB127
 3069 110b 12000000 		.4byte	.LFE127
 3070 110f 02       		.byte	0x2
 3071 1110 7D       		.byte	0x7d
 3072 1111 00       		.sleb128 0
 3073 1112 01       		.byte	0x1
 3074 1113 30       		.uleb128 0x30
 3075 1114 01       		.byte	0x1
 3076 1115 16010000 		.4byte	.LASF254
 3077 1119 01       		.byte	0x1
 3078 111a 9C01     		.2byte	0x19c
 3079 111c 01       		.byte	0x1
 3080 111d 00000000 		.4byte	.LFB128
 3081 1121 12000000 		.4byte	.LFE128
 3082 1125 02       		.byte	0x2
 3083 1126 7D       		.byte	0x7d
 3084 1127 00       		.sleb128 0
 3085 1128 01       		.byte	0x1
 3086 1129 31       		.uleb128 0x31
 3087 112a E90A0000 		.4byte	.LASF255
 3088 112e 0D       		.byte	0xd
 3089 112f 9806     		.2byte	0x698
 3090 1131 47060000 		.4byte	0x647
 3091 1135 01       		.byte	0x1
 3092 1136 01       		.byte	0x1
 3093 1137 13       		.uleb128 0x13
 3094 1138 720A0000 		.4byte	0xa72
 3095 113c 47110000 		.4byte	0x1147
 3096 1140 14       		.uleb128 0x14
 3097 1141 5B030000 		.4byte	0x35b
 3098 1145 0F       		.byte	0xf
 3099 1146 00       		.byte	0
 3100 1147 31       		.uleb128 0x31
 3101 1148 67050000 		.4byte	.LASF256
 3102 114c 0A       		.byte	0xa
 3103 114d BB01     		.2byte	0x1bb
 3104 114f 55110000 		.4byte	0x1155
 3105 1153 01       		.byte	0x1
 3106 1154 01       		.byte	0x1
 3107 1155 10       		.uleb128 0x10
 3108 1156 37110000 		.4byte	0x1137
 3109 115a 32       		.uleb128 0x32
 3110 115b DA070000 		.4byte	.LASF257
 3111 115f 01       		.byte	0x1
 3112 1160 31       		.byte	0x31
 3113 1161 110B0000 		.4byte	0xb11
ARM GAS  /tmp/ccSwRXu6.s 			page 56


 3114 1165 01       		.byte	0x1
 3115 1166 05       		.byte	0x5
 3116 1167 03       		.byte	0x3
 3117 1168 00000000 		.4byte	ADCD1
 3118 116c 33       		.uleb128 0x33
 3119 116d 01       		.byte	0x1
 3120 116e AD0A0000 		.4byte	.LASF258
 3121 1172 0B       		.byte	0xb
 3122 1173 1E01     		.2byte	0x11e
 3123 1175 01       		.byte	0x1
 3124 1176 01       		.byte	0x1
 3125 1177 81110000 		.4byte	0x1181
 3126 117b 19       		.uleb128 0x19
 3127 117c E90B0000 		.4byte	0xbe9
 3128 1180 00       		.byte	0
 3129 1181 33       		.uleb128 0x33
 3130 1182 01       		.byte	0x1
 3131 1183 250B0000 		.4byte	.LASF259
 3132 1187 0E       		.byte	0xe
 3133 1188 1C01     		.2byte	0x11c
 3134 118a 01       		.byte	0x1
 3135 118b 01       		.byte	0x1
 3136 118c 9B110000 		.4byte	0x119b
 3137 1190 19       		.uleb128 0x19
 3138 1191 86000000 		.4byte	0x86
 3139 1195 19       		.uleb128 0x19
 3140 1196 86000000 		.4byte	0x86
 3141 119a 00       		.byte	0
 3142 119b 34       		.uleb128 0x34
 3143 119c 01       		.byte	0x1
 3144 119d 2A040000 		.4byte	.LASF261
 3145 11a1 0A       		.byte	0xa
 3146 11a2 C201     		.2byte	0x1c2
 3147 11a4 01       		.byte	0x1
 3148 11a5 A6000000 		.4byte	0xa6
 3149 11a9 01       		.byte	0x1
 3150 11aa C3110000 		.4byte	0x11c3
 3151 11ae 19       		.uleb128 0x19
 3152 11af 140D0000 		.4byte	0xd14
 3153 11b3 19       		.uleb128 0x19
 3154 11b4 86000000 		.4byte	0x86
 3155 11b8 19       		.uleb128 0x19
 3156 11b9 7D0A0000 		.4byte	0xa7d
 3157 11bd 19       		.uleb128 0x19
 3158 11be A3020000 		.4byte	0x2a3
 3159 11c2 00       		.byte	0
 3160 11c3 33       		.uleb128 0x33
 3161 11c4 01       		.byte	0x1
 3162 11c5 9E000000 		.4byte	.LASF260
 3163 11c9 0A       		.byte	0xa
 3164 11ca C601     		.2byte	0x1c6
 3165 11cc 01       		.byte	0x1
 3166 11cd 01       		.byte	0x1
 3167 11ce D8110000 		.4byte	0x11d8
 3168 11d2 19       		.uleb128 0x19
 3169 11d3 140D0000 		.4byte	0xd14
 3170 11d7 00       		.byte	0
ARM GAS  /tmp/ccSwRXu6.s 			page 57


 3171 11d8 35       		.uleb128 0x35
 3172 11d9 01       		.byte	0x1
 3173 11da C2000000 		.4byte	.LASF262
 3174 11de 0F       		.byte	0xf
 3175 11df 89       		.byte	0x89
 3176 11e0 01       		.byte	0x1
 3177 11e1 65020000 		.4byte	0x265
 3178 11e5 01       		.byte	0x1
 3179 11e6 F0110000 		.4byte	0x11f0
 3180 11ea 19       		.uleb128 0x19
 3181 11eb 65020000 		.4byte	0x265
 3182 11ef 00       		.byte	0
 3183 11f0 36       		.uleb128 0x36
 3184 11f1 01       		.byte	0x1
 3185 11f2 BB070000 		.4byte	.LASF268
 3186 11f6 07       		.byte	0x7
 3187 11f7 FC01     		.2byte	0x1fc
 3188 11f9 01       		.byte	0x1
 3189 11fa 01       		.byte	0x1
 3190 11fb 00       		.byte	0
 3191              		.section	.debug_abbrev,"",%progbits
 3192              	.Ldebug_abbrev0:
 3193 0000 01       		.uleb128 0x1
 3194 0001 11       		.uleb128 0x11
 3195 0002 01       		.byte	0x1
 3196 0003 25       		.uleb128 0x25
 3197 0004 0E       		.uleb128 0xe
 3198 0005 13       		.uleb128 0x13
 3199 0006 0B       		.uleb128 0xb
 3200 0007 03       		.uleb128 0x3
 3201 0008 0E       		.uleb128 0xe
 3202 0009 1B       		.uleb128 0x1b
 3203 000a 0E       		.uleb128 0xe
 3204 000b 55       		.uleb128 0x55
 3205 000c 06       		.uleb128 0x6
 3206 000d 11       		.uleb128 0x11
 3207 000e 01       		.uleb128 0x1
 3208 000f 52       		.uleb128 0x52
 3209 0010 01       		.uleb128 0x1
 3210 0011 10       		.uleb128 0x10
 3211 0012 06       		.uleb128 0x6
 3212 0013 00       		.byte	0
 3213 0014 00       		.byte	0
 3214 0015 02       		.uleb128 0x2
 3215 0016 24       		.uleb128 0x24
 3216 0017 00       		.byte	0
 3217 0018 0B       		.uleb128 0xb
 3218 0019 0B       		.uleb128 0xb
 3219 001a 3E       		.uleb128 0x3e
 3220 001b 0B       		.uleb128 0xb
 3221 001c 03       		.uleb128 0x3
 3222 001d 08       		.uleb128 0x8
 3223 001e 00       		.byte	0
 3224 001f 00       		.byte	0
 3225 0020 03       		.uleb128 0x3
 3226 0021 16       		.uleb128 0x16
 3227 0022 00       		.byte	0
ARM GAS  /tmp/ccSwRXu6.s 			page 58


 3228 0023 03       		.uleb128 0x3
 3229 0024 0E       		.uleb128 0xe
 3230 0025 3A       		.uleb128 0x3a
 3231 0026 0B       		.uleb128 0xb
 3232 0027 3B       		.uleb128 0x3b
 3233 0028 0B       		.uleb128 0xb
 3234 0029 49       		.uleb128 0x49
 3235 002a 13       		.uleb128 0x13
 3236 002b 00       		.byte	0
 3237 002c 00       		.byte	0
 3238 002d 04       		.uleb128 0x4
 3239 002e 24       		.uleb128 0x24
 3240 002f 00       		.byte	0
 3241 0030 0B       		.uleb128 0xb
 3242 0031 0B       		.uleb128 0xb
 3243 0032 3E       		.uleb128 0x3e
 3244 0033 0B       		.uleb128 0xb
 3245 0034 03       		.uleb128 0x3
 3246 0035 0E       		.uleb128 0xe
 3247 0036 00       		.byte	0
 3248 0037 00       		.byte	0
 3249 0038 05       		.uleb128 0x5
 3250 0039 13       		.uleb128 0x13
 3251 003a 01       		.byte	0x1
 3252 003b 03       		.uleb128 0x3
 3253 003c 0E       		.uleb128 0xe
 3254 003d 0B       		.uleb128 0xb
 3255 003e 0B       		.uleb128 0xb
 3256 003f 3A       		.uleb128 0x3a
 3257 0040 0B       		.uleb128 0xb
 3258 0041 3B       		.uleb128 0x3b
 3259 0042 0B       		.uleb128 0xb
 3260 0043 01       		.uleb128 0x1
 3261 0044 13       		.uleb128 0x13
 3262 0045 00       		.byte	0
 3263 0046 00       		.byte	0
 3264 0047 06       		.uleb128 0x6
 3265 0048 0D       		.uleb128 0xd
 3266 0049 00       		.byte	0
 3267 004a 03       		.uleb128 0x3
 3268 004b 0E       		.uleb128 0xe
 3269 004c 3A       		.uleb128 0x3a
 3270 004d 0B       		.uleb128 0xb
 3271 004e 3B       		.uleb128 0x3b
 3272 004f 0B       		.uleb128 0xb
 3273 0050 49       		.uleb128 0x49
 3274 0051 13       		.uleb128 0x13
 3275 0052 38       		.uleb128 0x38
 3276 0053 0A       		.uleb128 0xa
 3277 0054 00       		.byte	0
 3278 0055 00       		.byte	0
 3279 0056 07       		.uleb128 0x7
 3280 0057 0D       		.uleb128 0xd
 3281 0058 00       		.byte	0
 3282 0059 03       		.uleb128 0x3
 3283 005a 08       		.uleb128 0x8
 3284 005b 3A       		.uleb128 0x3a
ARM GAS  /tmp/ccSwRXu6.s 			page 59


 3285 005c 0B       		.uleb128 0xb
 3286 005d 3B       		.uleb128 0x3b
 3287 005e 0B       		.uleb128 0xb
 3288 005f 49       		.uleb128 0x49
 3289 0060 13       		.uleb128 0x13
 3290 0061 38       		.uleb128 0x38
 3291 0062 0A       		.uleb128 0xa
 3292 0063 00       		.byte	0
 3293 0064 00       		.byte	0
 3294 0065 08       		.uleb128 0x8
 3295 0066 13       		.uleb128 0x13
 3296 0067 01       		.byte	0x1
 3297 0068 0B       		.uleb128 0xb
 3298 0069 0B       		.uleb128 0xb
 3299 006a 3A       		.uleb128 0x3a
 3300 006b 0B       		.uleb128 0xb
 3301 006c 3B       		.uleb128 0x3b
 3302 006d 0B       		.uleb128 0xb
 3303 006e 01       		.uleb128 0x1
 3304 006f 13       		.uleb128 0x13
 3305 0070 00       		.byte	0
 3306 0071 00       		.byte	0
 3307 0072 09       		.uleb128 0x9
 3308 0073 0F       		.uleb128 0xf
 3309 0074 00       		.byte	0
 3310 0075 0B       		.uleb128 0xb
 3311 0076 0B       		.uleb128 0xb
 3312 0077 49       		.uleb128 0x49
 3313 0078 13       		.uleb128 0x13
 3314 0079 00       		.byte	0
 3315 007a 00       		.byte	0
 3316 007b 0A       		.uleb128 0xa
 3317 007c 0F       		.uleb128 0xf
 3318 007d 00       		.byte	0
 3319 007e 0B       		.uleb128 0xb
 3320 007f 0B       		.uleb128 0xb
 3321 0080 00       		.byte	0
 3322 0081 00       		.byte	0
 3323 0082 0B       		.uleb128 0xb
 3324 0083 13       		.uleb128 0x13
 3325 0084 01       		.byte	0x1
 3326 0085 03       		.uleb128 0x3
 3327 0086 0E       		.uleb128 0xe
 3328 0087 0B       		.uleb128 0xb
 3329 0088 0B       		.uleb128 0xb
 3330 0089 3A       		.uleb128 0x3a
 3331 008a 0B       		.uleb128 0xb
 3332 008b 3B       		.uleb128 0x3b
 3333 008c 05       		.uleb128 0x5
 3334 008d 01       		.uleb128 0x1
 3335 008e 13       		.uleb128 0x13
 3336 008f 00       		.byte	0
 3337 0090 00       		.byte	0
 3338 0091 0C       		.uleb128 0xc
 3339 0092 0D       		.uleb128 0xd
 3340 0093 00       		.byte	0
 3341 0094 03       		.uleb128 0x3
ARM GAS  /tmp/ccSwRXu6.s 			page 60


 3342 0095 08       		.uleb128 0x8
 3343 0096 3A       		.uleb128 0x3a
 3344 0097 0B       		.uleb128 0xb
 3345 0098 3B       		.uleb128 0x3b
 3346 0099 05       		.uleb128 0x5
 3347 009a 49       		.uleb128 0x49
 3348 009b 13       		.uleb128 0x13
 3349 009c 38       		.uleb128 0x38
 3350 009d 0A       		.uleb128 0xa
 3351 009e 00       		.byte	0
 3352 009f 00       		.byte	0
 3353 00a0 0D       		.uleb128 0xd
 3354 00a1 35       		.uleb128 0x35
 3355 00a2 00       		.byte	0
 3356 00a3 49       		.uleb128 0x49
 3357 00a4 13       		.uleb128 0x13
 3358 00a5 00       		.byte	0
 3359 00a6 00       		.byte	0
 3360 00a7 0E       		.uleb128 0xe
 3361 00a8 17       		.uleb128 0x17
 3362 00a9 01       		.byte	0x1
 3363 00aa 0B       		.uleb128 0xb
 3364 00ab 0B       		.uleb128 0xb
 3365 00ac 3A       		.uleb128 0x3a
 3366 00ad 0B       		.uleb128 0xb
 3367 00ae 3B       		.uleb128 0x3b
 3368 00af 0B       		.uleb128 0xb
 3369 00b0 01       		.uleb128 0x1
 3370 00b1 13       		.uleb128 0x13
 3371 00b2 00       		.byte	0
 3372 00b3 00       		.byte	0
 3373 00b4 0F       		.uleb128 0xf
 3374 00b5 0D       		.uleb128 0xd
 3375 00b6 00       		.byte	0
 3376 00b7 03       		.uleb128 0x3
 3377 00b8 0E       		.uleb128 0xe
 3378 00b9 3A       		.uleb128 0x3a
 3379 00ba 0B       		.uleb128 0xb
 3380 00bb 3B       		.uleb128 0x3b
 3381 00bc 0B       		.uleb128 0xb
 3382 00bd 49       		.uleb128 0x49
 3383 00be 13       		.uleb128 0x13
 3384 00bf 00       		.byte	0
 3385 00c0 00       		.byte	0
 3386 00c1 10       		.uleb128 0x10
 3387 00c2 26       		.uleb128 0x26
 3388 00c3 00       		.byte	0
 3389 00c4 49       		.uleb128 0x49
 3390 00c5 13       		.uleb128 0x13
 3391 00c6 00       		.byte	0
 3392 00c7 00       		.byte	0
 3393 00c8 11       		.uleb128 0x11
 3394 00c9 04       		.uleb128 0x4
 3395 00ca 01       		.byte	0x1
 3396 00cb 03       		.uleb128 0x3
 3397 00cc 0E       		.uleb128 0xe
 3398 00cd 0B       		.uleb128 0xb
ARM GAS  /tmp/ccSwRXu6.s 			page 61


 3399 00ce 0B       		.uleb128 0xb
 3400 00cf 3A       		.uleb128 0x3a
 3401 00d0 0B       		.uleb128 0xb
 3402 00d1 3B       		.uleb128 0x3b
 3403 00d2 0B       		.uleb128 0xb
 3404 00d3 01       		.uleb128 0x1
 3405 00d4 13       		.uleb128 0x13
 3406 00d5 00       		.byte	0
 3407 00d6 00       		.byte	0
 3408 00d7 12       		.uleb128 0x12
 3409 00d8 28       		.uleb128 0x28
 3410 00d9 00       		.byte	0
 3411 00da 03       		.uleb128 0x3
 3412 00db 0E       		.uleb128 0xe
 3413 00dc 1C       		.uleb128 0x1c
 3414 00dd 0D       		.uleb128 0xd
 3415 00de 00       		.byte	0
 3416 00df 00       		.byte	0
 3417 00e0 13       		.uleb128 0x13
 3418 00e1 01       		.uleb128 0x1
 3419 00e2 01       		.byte	0x1
 3420 00e3 49       		.uleb128 0x49
 3421 00e4 13       		.uleb128 0x13
 3422 00e5 01       		.uleb128 0x1
 3423 00e6 13       		.uleb128 0x13
 3424 00e7 00       		.byte	0
 3425 00e8 00       		.byte	0
 3426 00e9 14       		.uleb128 0x14
 3427 00ea 21       		.uleb128 0x21
 3428 00eb 00       		.byte	0
 3429 00ec 49       		.uleb128 0x49
 3430 00ed 13       		.uleb128 0x13
 3431 00ee 2F       		.uleb128 0x2f
 3432 00ef 0B       		.uleb128 0xb
 3433 00f0 00       		.byte	0
 3434 00f1 00       		.byte	0
 3435 00f2 15       		.uleb128 0x15
 3436 00f3 13       		.uleb128 0x13
 3437 00f4 01       		.byte	0x1
 3438 00f5 0B       		.uleb128 0xb
 3439 00f6 0B       		.uleb128 0xb
 3440 00f7 3A       		.uleb128 0x3a
 3441 00f8 0B       		.uleb128 0xb
 3442 00f9 3B       		.uleb128 0x3b
 3443 00fa 05       		.uleb128 0x5
 3444 00fb 01       		.uleb128 0x1
 3445 00fc 13       		.uleb128 0x13
 3446 00fd 00       		.byte	0
 3447 00fe 00       		.byte	0
 3448 00ff 16       		.uleb128 0x16
 3449 0100 0D       		.uleb128 0xd
 3450 0101 00       		.byte	0
 3451 0102 03       		.uleb128 0x3
 3452 0103 0E       		.uleb128 0xe
 3453 0104 3A       		.uleb128 0x3a
 3454 0105 0B       		.uleb128 0xb
 3455 0106 3B       		.uleb128 0x3b
ARM GAS  /tmp/ccSwRXu6.s 			page 62


 3456 0107 05       		.uleb128 0x5
 3457 0108 49       		.uleb128 0x49
 3458 0109 13       		.uleb128 0x13
 3459 010a 38       		.uleb128 0x38
 3460 010b 0A       		.uleb128 0xa
 3461 010c 00       		.byte	0
 3462 010d 00       		.byte	0
 3463 010e 17       		.uleb128 0x17
 3464 010f 16       		.uleb128 0x16
 3465 0110 00       		.byte	0
 3466 0111 03       		.uleb128 0x3
 3467 0112 0E       		.uleb128 0xe
 3468 0113 3A       		.uleb128 0x3a
 3469 0114 0B       		.uleb128 0xb
 3470 0115 3B       		.uleb128 0x3b
 3471 0116 05       		.uleb128 0x5
 3472 0117 49       		.uleb128 0x49
 3473 0118 13       		.uleb128 0x13
 3474 0119 00       		.byte	0
 3475 011a 00       		.byte	0
 3476 011b 18       		.uleb128 0x18
 3477 011c 15       		.uleb128 0x15
 3478 011d 01       		.byte	0x1
 3479 011e 27       		.uleb128 0x27
 3480 011f 0C       		.uleb128 0xc
 3481 0120 01       		.uleb128 0x1
 3482 0121 13       		.uleb128 0x13
 3483 0122 00       		.byte	0
 3484 0123 00       		.byte	0
 3485 0124 19       		.uleb128 0x19
 3486 0125 05       		.uleb128 0x5
 3487 0126 00       		.byte	0
 3488 0127 49       		.uleb128 0x49
 3489 0128 13       		.uleb128 0x13
 3490 0129 00       		.byte	0
 3491 012a 00       		.byte	0
 3492 012b 1A       		.uleb128 0x1a
 3493 012c 04       		.uleb128 0x4
 3494 012d 01       		.byte	0x1
 3495 012e 0B       		.uleb128 0xb
 3496 012f 0B       		.uleb128 0xb
 3497 0130 3A       		.uleb128 0x3a
 3498 0131 0B       		.uleb128 0xb
 3499 0132 3B       		.uleb128 0x3b
 3500 0133 0B       		.uleb128 0xb
 3501 0134 01       		.uleb128 0x1
 3502 0135 13       		.uleb128 0x13
 3503 0136 00       		.byte	0
 3504 0137 00       		.byte	0
 3505 0138 1B       		.uleb128 0x1b
 3506 0139 04       		.uleb128 0x4
 3507 013a 01       		.byte	0x1
 3508 013b 0B       		.uleb128 0xb
 3509 013c 0B       		.uleb128 0xb
 3510 013d 3A       		.uleb128 0x3a
 3511 013e 0B       		.uleb128 0xb
 3512 013f 3B       		.uleb128 0x3b
ARM GAS  /tmp/ccSwRXu6.s 			page 63


 3513 0140 05       		.uleb128 0x5
 3514 0141 01       		.uleb128 0x1
 3515 0142 13       		.uleb128 0x13
 3516 0143 00       		.byte	0
 3517 0144 00       		.byte	0
 3518 0145 1C       		.uleb128 0x1c
 3519 0146 2E       		.uleb128 0x2e
 3520 0147 01       		.byte	0x1
 3521 0148 3F       		.uleb128 0x3f
 3522 0149 0C       		.uleb128 0xc
 3523 014a 03       		.uleb128 0x3
 3524 014b 0E       		.uleb128 0xe
 3525 014c 3A       		.uleb128 0x3a
 3526 014d 0B       		.uleb128 0xb
 3527 014e 3B       		.uleb128 0x3b
 3528 014f 0B       		.uleb128 0xb
 3529 0150 27       		.uleb128 0x27
 3530 0151 0C       		.uleb128 0xc
 3531 0152 11       		.uleb128 0x11
 3532 0153 01       		.uleb128 0x1
 3533 0154 12       		.uleb128 0x12
 3534 0155 01       		.uleb128 0x1
 3535 0156 40       		.uleb128 0x40
 3536 0157 06       		.uleb128 0x6
 3537 0158 9742     		.uleb128 0x2117
 3538 015a 0C       		.uleb128 0xc
 3539 015b 01       		.uleb128 0x1
 3540 015c 13       		.uleb128 0x13
 3541 015d 00       		.byte	0
 3542 015e 00       		.byte	0
 3543 015f 1D       		.uleb128 0x1d
 3544 0160 898201   		.uleb128 0x4109
 3545 0163 01       		.byte	0x1
 3546 0164 11       		.uleb128 0x11
 3547 0165 01       		.uleb128 0x1
 3548 0166 31       		.uleb128 0x31
 3549 0167 13       		.uleb128 0x13
 3550 0168 01       		.uleb128 0x1
 3551 0169 13       		.uleb128 0x13
 3552 016a 00       		.byte	0
 3553 016b 00       		.byte	0
 3554 016c 1E       		.uleb128 0x1e
 3555 016d 8A8201   		.uleb128 0x410a
 3556 0170 00       		.byte	0
 3557 0171 02       		.uleb128 0x2
 3558 0172 0A       		.uleb128 0xa
 3559 0173 9142     		.uleb128 0x2111
 3560 0175 0A       		.uleb128 0xa
 3561 0176 00       		.byte	0
 3562 0177 00       		.byte	0
 3563 0178 1F       		.uleb128 0x1f
 3564 0179 898201   		.uleb128 0x4109
 3565 017c 01       		.byte	0x1
 3566 017d 11       		.uleb128 0x11
 3567 017e 01       		.uleb128 0x1
 3568 017f 9542     		.uleb128 0x2115
 3569 0181 0C       		.uleb128 0xc
ARM GAS  /tmp/ccSwRXu6.s 			page 64


 3570 0182 31       		.uleb128 0x31
 3571 0183 13       		.uleb128 0x13
 3572 0184 00       		.byte	0
 3573 0185 00       		.byte	0
 3574 0186 20       		.uleb128 0x20
 3575 0187 05       		.uleb128 0x5
 3576 0188 00       		.byte	0
 3577 0189 03       		.uleb128 0x3
 3578 018a 0E       		.uleb128 0xe
 3579 018b 3A       		.uleb128 0x3a
 3580 018c 0B       		.uleb128 0xb
 3581 018d 3B       		.uleb128 0x3b
 3582 018e 0B       		.uleb128 0xb
 3583 018f 49       		.uleb128 0x49
 3584 0190 13       		.uleb128 0x13
 3585 0191 02       		.uleb128 0x2
 3586 0192 06       		.uleb128 0x6
 3587 0193 00       		.byte	0
 3588 0194 00       		.byte	0
 3589 0195 21       		.uleb128 0x21
 3590 0196 0B       		.uleb128 0xb
 3591 0197 01       		.byte	0x1
 3592 0198 11       		.uleb128 0x11
 3593 0199 01       		.uleb128 0x1
 3594 019a 12       		.uleb128 0x12
 3595 019b 01       		.uleb128 0x1
 3596 019c 00       		.byte	0
 3597 019d 00       		.byte	0
 3598 019e 22       		.uleb128 0x22
 3599 019f 34       		.uleb128 0x34
 3600 01a0 00       		.byte	0
 3601 01a1 03       		.uleb128 0x3
 3602 01a2 08       		.uleb128 0x8
 3603 01a3 3A       		.uleb128 0x3a
 3604 01a4 0B       		.uleb128 0xb
 3605 01a5 3B       		.uleb128 0x3b
 3606 01a6 0B       		.uleb128 0xb
 3607 01a7 49       		.uleb128 0x49
 3608 01a8 13       		.uleb128 0x13
 3609 01a9 00       		.byte	0
 3610 01aa 00       		.byte	0
 3611 01ab 23       		.uleb128 0x23
 3612 01ac 898201   		.uleb128 0x4109
 3613 01af 01       		.byte	0x1
 3614 01b0 11       		.uleb128 0x11
 3615 01b1 01       		.uleb128 0x1
 3616 01b2 31       		.uleb128 0x31
 3617 01b3 13       		.uleb128 0x13
 3618 01b4 00       		.byte	0
 3619 01b5 00       		.byte	0
 3620 01b6 24       		.uleb128 0x24
 3621 01b7 2E       		.uleb128 0x2e
 3622 01b8 01       		.byte	0x1
 3623 01b9 3F       		.uleb128 0x3f
 3624 01ba 0C       		.uleb128 0xc
 3625 01bb 03       		.uleb128 0x3
 3626 01bc 0E       		.uleb128 0xe
ARM GAS  /tmp/ccSwRXu6.s 			page 65


 3627 01bd 3A       		.uleb128 0x3a
 3628 01be 0B       		.uleb128 0xb
 3629 01bf 3B       		.uleb128 0x3b
 3630 01c0 05       		.uleb128 0x5
 3631 01c1 27       		.uleb128 0x27
 3632 01c2 0C       		.uleb128 0xc
 3633 01c3 11       		.uleb128 0x11
 3634 01c4 01       		.uleb128 0x1
 3635 01c5 12       		.uleb128 0x12
 3636 01c6 01       		.uleb128 0x1
 3637 01c7 40       		.uleb128 0x40
 3638 01c8 06       		.uleb128 0x6
 3639 01c9 9742     		.uleb128 0x2117
 3640 01cb 0C       		.uleb128 0xc
 3641 01cc 01       		.uleb128 0x1
 3642 01cd 13       		.uleb128 0x13
 3643 01ce 00       		.byte	0
 3644 01cf 00       		.byte	0
 3645 01d0 25       		.uleb128 0x25
 3646 01d1 05       		.uleb128 0x5
 3647 01d2 00       		.byte	0
 3648 01d3 03       		.uleb128 0x3
 3649 01d4 0E       		.uleb128 0xe
 3650 01d5 3A       		.uleb128 0x3a
 3651 01d6 0B       		.uleb128 0xb
 3652 01d7 3B       		.uleb128 0x3b
 3653 01d8 05       		.uleb128 0x5
 3654 01d9 49       		.uleb128 0x49
 3655 01da 13       		.uleb128 0x13
 3656 01db 02       		.uleb128 0x2
 3657 01dc 06       		.uleb128 0x6
 3658 01dd 00       		.byte	0
 3659 01de 00       		.byte	0
 3660 01df 26       		.uleb128 0x26
 3661 01e0 898201   		.uleb128 0x4109
 3662 01e3 00       		.byte	0
 3663 01e4 11       		.uleb128 0x11
 3664 01e5 01       		.uleb128 0x1
 3665 01e6 31       		.uleb128 0x31
 3666 01e7 13       		.uleb128 0x13
 3667 01e8 00       		.byte	0
 3668 01e9 00       		.byte	0
 3669 01ea 27       		.uleb128 0x27
 3670 01eb 34       		.uleb128 0x34
 3671 01ec 00       		.byte	0
 3672 01ed 03       		.uleb128 0x3
 3673 01ee 0E       		.uleb128 0xe
 3674 01ef 3A       		.uleb128 0x3a
 3675 01f0 0B       		.uleb128 0xb
 3676 01f1 3B       		.uleb128 0x3b
 3677 01f2 05       		.uleb128 0x5
 3678 01f3 49       		.uleb128 0x49
 3679 01f4 13       		.uleb128 0x13
 3680 01f5 02       		.uleb128 0x2
 3681 01f6 06       		.uleb128 0x6
 3682 01f7 00       		.byte	0
 3683 01f8 00       		.byte	0
ARM GAS  /tmp/ccSwRXu6.s 			page 66


 3684 01f9 28       		.uleb128 0x28
 3685 01fa 2E       		.uleb128 0x2e
 3686 01fb 01       		.byte	0x1
 3687 01fc 03       		.uleb128 0x3
 3688 01fd 0E       		.uleb128 0xe
 3689 01fe 3A       		.uleb128 0x3a
 3690 01ff 0B       		.uleb128 0xb
 3691 0200 3B       		.uleb128 0x3b
 3692 0201 0B       		.uleb128 0xb
 3693 0202 27       		.uleb128 0x27
 3694 0203 0C       		.uleb128 0xc
 3695 0204 11       		.uleb128 0x11
 3696 0205 01       		.uleb128 0x1
 3697 0206 12       		.uleb128 0x12
 3698 0207 01       		.uleb128 0x1
 3699 0208 40       		.uleb128 0x40
 3700 0209 06       		.uleb128 0x6
 3701 020a 9742     		.uleb128 0x2117
 3702 020c 0C       		.uleb128 0xc
 3703 020d 01       		.uleb128 0x1
 3704 020e 13       		.uleb128 0x13
 3705 020f 00       		.byte	0
 3706 0210 00       		.byte	0
 3707 0211 29       		.uleb128 0x29
 3708 0212 0B       		.uleb128 0xb
 3709 0213 01       		.byte	0x1
 3710 0214 11       		.uleb128 0x11
 3711 0215 01       		.uleb128 0x1
 3712 0216 12       		.uleb128 0x12
 3713 0217 01       		.uleb128 0x1
 3714 0218 01       		.uleb128 0x1
 3715 0219 13       		.uleb128 0x13
 3716 021a 00       		.byte	0
 3717 021b 00       		.byte	0
 3718 021c 2A       		.uleb128 0x2a
 3719 021d 34       		.uleb128 0x34
 3720 021e 00       		.byte	0
 3721 021f 03       		.uleb128 0x3
 3722 0220 0E       		.uleb128 0xe
 3723 0221 3A       		.uleb128 0x3a
 3724 0222 0B       		.uleb128 0xb
 3725 0223 3B       		.uleb128 0x3b
 3726 0224 0B       		.uleb128 0xb
 3727 0225 49       		.uleb128 0x49
 3728 0226 13       		.uleb128 0x13
 3729 0227 02       		.uleb128 0x2
 3730 0228 06       		.uleb128 0x6
 3731 0229 00       		.byte	0
 3732 022a 00       		.byte	0
 3733 022b 2B       		.uleb128 0x2b
 3734 022c 898201   		.uleb128 0x4109
 3735 022f 01       		.byte	0x1
 3736 0230 11       		.uleb128 0x11
 3737 0231 01       		.uleb128 0x1
 3738 0232 9342     		.uleb128 0x2113
 3739 0234 0A       		.uleb128 0xa
 3740 0235 00       		.byte	0
ARM GAS  /tmp/ccSwRXu6.s 			page 67


 3741 0236 00       		.byte	0
 3742 0237 2C       		.uleb128 0x2c
 3743 0238 34       		.uleb128 0x34
 3744 0239 00       		.byte	0
 3745 023a 03       		.uleb128 0x3
 3746 023b 08       		.uleb128 0x8
 3747 023c 3A       		.uleb128 0x3a
 3748 023d 0B       		.uleb128 0xb
 3749 023e 3B       		.uleb128 0x3b
 3750 023f 0B       		.uleb128 0xb
 3751 0240 49       		.uleb128 0x49
 3752 0241 13       		.uleb128 0x13
 3753 0242 02       		.uleb128 0x2
 3754 0243 06       		.uleb128 0x6
 3755 0244 00       		.byte	0
 3756 0245 00       		.byte	0
 3757 0246 2D       		.uleb128 0x2d
 3758 0247 898201   		.uleb128 0x4109
 3759 024a 01       		.byte	0x1
 3760 024b 11       		.uleb128 0x11
 3761 024c 01       		.uleb128 0x1
 3762 024d 00       		.byte	0
 3763 024e 00       		.byte	0
 3764 024f 2E       		.uleb128 0x2e
 3765 0250 898201   		.uleb128 0x4109
 3766 0253 01       		.byte	0x1
 3767 0254 11       		.uleb128 0x11
 3768 0255 01       		.uleb128 0x1
 3769 0256 01       		.uleb128 0x1
 3770 0257 13       		.uleb128 0x13
 3771 0258 00       		.byte	0
 3772 0259 00       		.byte	0
 3773 025a 2F       		.uleb128 0x2f
 3774 025b 898201   		.uleb128 0x4109
 3775 025e 00       		.byte	0
 3776 025f 11       		.uleb128 0x11
 3777 0260 01       		.uleb128 0x1
 3778 0261 9542     		.uleb128 0x2115
 3779 0263 0C       		.uleb128 0xc
 3780 0264 31       		.uleb128 0x31
 3781 0265 13       		.uleb128 0x13
 3782 0266 00       		.byte	0
 3783 0267 00       		.byte	0
 3784 0268 30       		.uleb128 0x30
 3785 0269 2E       		.uleb128 0x2e
 3786 026a 00       		.byte	0
 3787 026b 3F       		.uleb128 0x3f
 3788 026c 0C       		.uleb128 0xc
 3789 026d 03       		.uleb128 0x3
 3790 026e 0E       		.uleb128 0xe
 3791 026f 3A       		.uleb128 0x3a
 3792 0270 0B       		.uleb128 0xb
 3793 0271 3B       		.uleb128 0x3b
 3794 0272 05       		.uleb128 0x5
 3795 0273 27       		.uleb128 0x27
 3796 0274 0C       		.uleb128 0xc
 3797 0275 11       		.uleb128 0x11
ARM GAS  /tmp/ccSwRXu6.s 			page 68


 3798 0276 01       		.uleb128 0x1
 3799 0277 12       		.uleb128 0x12
 3800 0278 01       		.uleb128 0x1
 3801 0279 40       		.uleb128 0x40
 3802 027a 0A       		.uleb128 0xa
 3803 027b 9742     		.uleb128 0x2117
 3804 027d 0C       		.uleb128 0xc
 3805 027e 00       		.byte	0
 3806 027f 00       		.byte	0
 3807 0280 31       		.uleb128 0x31
 3808 0281 34       		.uleb128 0x34
 3809 0282 00       		.byte	0
 3810 0283 03       		.uleb128 0x3
 3811 0284 0E       		.uleb128 0xe
 3812 0285 3A       		.uleb128 0x3a
 3813 0286 0B       		.uleb128 0xb
 3814 0287 3B       		.uleb128 0x3b
 3815 0288 05       		.uleb128 0x5
 3816 0289 49       		.uleb128 0x49
 3817 028a 13       		.uleb128 0x13
 3818 028b 3F       		.uleb128 0x3f
 3819 028c 0C       		.uleb128 0xc
 3820 028d 3C       		.uleb128 0x3c
 3821 028e 0C       		.uleb128 0xc
 3822 028f 00       		.byte	0
 3823 0290 00       		.byte	0
 3824 0291 32       		.uleb128 0x32
 3825 0292 34       		.uleb128 0x34
 3826 0293 00       		.byte	0
 3827 0294 03       		.uleb128 0x3
 3828 0295 0E       		.uleb128 0xe
 3829 0296 3A       		.uleb128 0x3a
 3830 0297 0B       		.uleb128 0xb
 3831 0298 3B       		.uleb128 0x3b
 3832 0299 0B       		.uleb128 0xb
 3833 029a 49       		.uleb128 0x49
 3834 029b 13       		.uleb128 0x13
 3835 029c 3F       		.uleb128 0x3f
 3836 029d 0C       		.uleb128 0xc
 3837 029e 02       		.uleb128 0x2
 3838 029f 0A       		.uleb128 0xa
 3839 02a0 00       		.byte	0
 3840 02a1 00       		.byte	0
 3841 02a2 33       		.uleb128 0x33
 3842 02a3 2E       		.uleb128 0x2e
 3843 02a4 01       		.byte	0x1
 3844 02a5 3F       		.uleb128 0x3f
 3845 02a6 0C       		.uleb128 0xc
 3846 02a7 03       		.uleb128 0x3
 3847 02a8 0E       		.uleb128 0xe
 3848 02a9 3A       		.uleb128 0x3a
 3849 02aa 0B       		.uleb128 0xb
 3850 02ab 3B       		.uleb128 0x3b
 3851 02ac 05       		.uleb128 0x5
 3852 02ad 27       		.uleb128 0x27
 3853 02ae 0C       		.uleb128 0xc
 3854 02af 3C       		.uleb128 0x3c
ARM GAS  /tmp/ccSwRXu6.s 			page 69


 3855 02b0 0C       		.uleb128 0xc
 3856 02b1 01       		.uleb128 0x1
 3857 02b2 13       		.uleb128 0x13
 3858 02b3 00       		.byte	0
 3859 02b4 00       		.byte	0
 3860 02b5 34       		.uleb128 0x34
 3861 02b6 2E       		.uleb128 0x2e
 3862 02b7 01       		.byte	0x1
 3863 02b8 3F       		.uleb128 0x3f
 3864 02b9 0C       		.uleb128 0xc
 3865 02ba 03       		.uleb128 0x3
 3866 02bb 0E       		.uleb128 0xe
 3867 02bc 3A       		.uleb128 0x3a
 3868 02bd 0B       		.uleb128 0xb
 3869 02be 3B       		.uleb128 0x3b
 3870 02bf 05       		.uleb128 0x5
 3871 02c0 27       		.uleb128 0x27
 3872 02c1 0C       		.uleb128 0xc
 3873 02c2 49       		.uleb128 0x49
 3874 02c3 13       		.uleb128 0x13
 3875 02c4 3C       		.uleb128 0x3c
 3876 02c5 0C       		.uleb128 0xc
 3877 02c6 01       		.uleb128 0x1
 3878 02c7 13       		.uleb128 0x13
 3879 02c8 00       		.byte	0
 3880 02c9 00       		.byte	0
 3881 02ca 35       		.uleb128 0x35
 3882 02cb 2E       		.uleb128 0x2e
 3883 02cc 01       		.byte	0x1
 3884 02cd 3F       		.uleb128 0x3f
 3885 02ce 0C       		.uleb128 0xc
 3886 02cf 03       		.uleb128 0x3
 3887 02d0 0E       		.uleb128 0xe
 3888 02d1 3A       		.uleb128 0x3a
 3889 02d2 0B       		.uleb128 0xb
 3890 02d3 3B       		.uleb128 0x3b
 3891 02d4 0B       		.uleb128 0xb
 3892 02d5 27       		.uleb128 0x27
 3893 02d6 0C       		.uleb128 0xc
 3894 02d7 49       		.uleb128 0x49
 3895 02d8 13       		.uleb128 0x13
 3896 02d9 3C       		.uleb128 0x3c
 3897 02da 0C       		.uleb128 0xc
 3898 02db 01       		.uleb128 0x1
 3899 02dc 13       		.uleb128 0x13
 3900 02dd 00       		.byte	0
 3901 02de 00       		.byte	0
 3902 02df 36       		.uleb128 0x36
 3903 02e0 2E       		.uleb128 0x2e
 3904 02e1 00       		.byte	0
 3905 02e2 3F       		.uleb128 0x3f
 3906 02e3 0C       		.uleb128 0xc
 3907 02e4 03       		.uleb128 0x3
 3908 02e5 0E       		.uleb128 0xe
 3909 02e6 3A       		.uleb128 0x3a
 3910 02e7 0B       		.uleb128 0xb
 3911 02e8 3B       		.uleb128 0x3b
ARM GAS  /tmp/ccSwRXu6.s 			page 70


 3912 02e9 05       		.uleb128 0x5
 3913 02ea 27       		.uleb128 0x27
 3914 02eb 0C       		.uleb128 0xc
 3915 02ec 3C       		.uleb128 0x3c
 3916 02ed 0C       		.uleb128 0xc
 3917 02ee 00       		.byte	0
 3918 02ef 00       		.byte	0
 3919 02f0 00       		.byte	0
 3920              		.section	.debug_loc,"",%progbits
 3921              	.Ldebug_loc0:
 3922              	.LLST0:
 3923 0000 00000000 		.4byte	.LFB120
 3924 0004 02000000 		.4byte	.LCFI0
 3925 0008 0200     		.2byte	0x2
 3926 000a 7D       		.byte	0x7d
 3927 000b 00       		.sleb128 0
 3928 000c 02000000 		.4byte	.LCFI0
 3929 0010 38000000 		.4byte	.LFE120
 3930 0014 0200     		.2byte	0x2
 3931 0016 7D       		.byte	0x7d
 3932 0017 08       		.sleb128 8
 3933 0018 00000000 		.4byte	0
 3934 001c 00000000 		.4byte	0
 3935              	.LLST1:
 3936 0020 00000000 		.4byte	.LFB121
 3937 0024 06000000 		.4byte	.LCFI1
 3938 0028 0200     		.2byte	0x2
 3939 002a 7D       		.byte	0x7d
 3940 002b 00       		.sleb128 0
 3941 002c 06000000 		.4byte	.LCFI1
 3942 0030 68000000 		.4byte	.LFE121
 3943 0034 0200     		.2byte	0x2
 3944 0036 7D       		.byte	0x7d
 3945 0037 08       		.sleb128 8
 3946 0038 00000000 		.4byte	0
 3947 003c 00000000 		.4byte	0
 3948              	.LLST2:
 3949 0040 00000000 		.4byte	.LVL2
 3950 0044 0E000000 		.4byte	.LVL3
 3951 0048 0100     		.2byte	0x1
 3952 004a 50       		.byte	0x50
 3953 004b 0E000000 		.4byte	.LVL3
 3954 004f 68000000 		.4byte	.LFE121
 3955 0053 0100     		.2byte	0x1
 3956 0055 54       		.byte	0x54
 3957 0056 00000000 		.4byte	0
 3958 005a 00000000 		.4byte	0
 3959              	.LLST3:
 3960 005e 00000000 		.4byte	.LFB122
 3961 0062 06000000 		.4byte	.LCFI2
 3962 0066 0200     		.2byte	0x2
 3963 0068 7D       		.byte	0x7d
 3964 0069 00       		.sleb128 0
 3965 006a 06000000 		.4byte	.LCFI2
 3966 006e 38000000 		.4byte	.LFE122
 3967 0072 0200     		.2byte	0x2
 3968 0074 7D       		.byte	0x7d
ARM GAS  /tmp/ccSwRXu6.s 			page 71


 3969 0075 08       		.sleb128 8
 3970 0076 00000000 		.4byte	0
 3971 007a 00000000 		.4byte	0
 3972              	.LLST4:
 3973 007e 00000000 		.4byte	.LVL5
 3974 0082 0A000000 		.4byte	.LVL6
 3975 0086 0100     		.2byte	0x1
 3976 0088 50       		.byte	0x50
 3977 0089 0A000000 		.4byte	.LVL6
 3978 008d 0C000000 		.4byte	.LVL7
 3979 0091 0100     		.2byte	0x1
 3980 0093 54       		.byte	0x54
 3981 0094 0C000000 		.4byte	.LVL7
 3982 0098 0E000000 		.4byte	.LVL8
 3983 009c 0100     		.2byte	0x1
 3984 009e 50       		.byte	0x50
 3985 009f 0E000000 		.4byte	.LVL8
 3986 00a3 38000000 		.4byte	.LFE122
 3987 00a7 0100     		.2byte	0x1
 3988 00a9 54       		.byte	0x54
 3989 00aa 00000000 		.4byte	0
 3990 00ae 00000000 		.4byte	0
 3991              	.LLST5:
 3992 00b2 00000000 		.4byte	.LFB123
 3993 00b6 0A000000 		.4byte	.LCFI3
 3994 00ba 0200     		.2byte	0x2
 3995 00bc 7D       		.byte	0x7d
 3996 00bd 00       		.sleb128 0
 3997 00be 0A000000 		.4byte	.LCFI3
 3998 00c2 80000000 		.4byte	.LFE123
 3999 00c6 0200     		.2byte	0x2
 4000 00c8 7D       		.byte	0x7d
 4001 00c9 18       		.sleb128 24
 4002 00ca 00000000 		.4byte	0
 4003 00ce 00000000 		.4byte	0
 4004              	.LLST6:
 4005 00d2 00000000 		.4byte	.LVL10
 4006 00d6 50000000 		.4byte	.LVL17
 4007 00da 0100     		.2byte	0x1
 4008 00dc 50       		.byte	0x50
 4009 00dd 50000000 		.4byte	.LVL17
 4010 00e1 80000000 		.4byte	.LFE123
 4011 00e5 0400     		.2byte	0x4
 4012 00e7 F3       		.byte	0xf3
 4013 00e8 01       		.uleb128 0x1
 4014 00e9 50       		.byte	0x50
 4015 00ea 9F       		.byte	0x9f
 4016 00eb 00000000 		.4byte	0
 4017 00ef 00000000 		.4byte	0
 4018              	.LLST7:
 4019 00f3 04000000 		.4byte	.LVL12
 4020 00f7 44000000 		.4byte	.LVL16
 4021 00fb 0100     		.2byte	0x1
 4022 00fd 52       		.byte	0x52
 4023 00fe 44000000 		.4byte	.LVL16
 4024 0102 52000000 		.4byte	.LVL18
 4025 0106 0200     		.2byte	0x2
ARM GAS  /tmp/ccSwRXu6.s 			page 72


 4026 0108 71       		.byte	0x71
 4027 0109 00       		.sleb128 0
 4028 010a 52000000 		.4byte	.LVL18
 4029 010e 80000000 		.4byte	.LFE123
 4030 0112 0700     		.2byte	0x7
 4031 0114 F3       		.byte	0xf3
 4032 0115 01       		.uleb128 0x1
 4033 0116 50       		.byte	0x50
 4034 0117 23       		.byte	0x23
 4035 0118 2C       		.uleb128 0x2c
 4036 0119 06       		.byte	0x6
 4037 011a 06       		.byte	0x6
 4038 011b 00000000 		.4byte	0
 4039 011f 00000000 		.4byte	0
 4040              	.LLST8:
 4041 0123 02000000 		.4byte	.LVL11
 4042 0127 42000000 		.4byte	.LVL15
 4043 012b 0100     		.2byte	0x1
 4044 012d 53       		.byte	0x53
 4045 012e 42000000 		.4byte	.LVL15
 4046 0132 50000000 		.4byte	.LVL17
 4047 0136 0200     		.2byte	0x2
 4048 0138 70       		.byte	0x70
 4049 0139 10       		.sleb128 16
 4050 013a 50000000 		.4byte	.LVL17
 4051 013e 80000000 		.4byte	.LFE123
 4052 0142 0500     		.2byte	0x5
 4053 0144 F3       		.byte	0xf3
 4054 0145 01       		.uleb128 0x1
 4055 0146 50       		.byte	0x50
 4056 0147 23       		.byte	0x23
 4057 0148 10       		.uleb128 0x10
 4058 0149 00000000 		.4byte	0
 4059 014d 00000000 		.4byte	0
 4060              	.LLST9:
 4061 0151 00000000 		.4byte	.LFB124
 4062 0155 08000000 		.4byte	.LCFI4
 4063 0159 0200     		.2byte	0x2
 4064 015b 7D       		.byte	0x7d
 4065 015c 00       		.sleb128 0
 4066 015d 08000000 		.4byte	.LCFI4
 4067 0161 30000000 		.4byte	.LFE124
 4068 0165 0200     		.2byte	0x2
 4069 0167 7D       		.byte	0x7d
 4070 0168 04       		.sleb128 4
 4071 0169 00000000 		.4byte	0
 4072 016d 00000000 		.4byte	0
 4073              	.LLST10:
 4074 0171 00000000 		.4byte	.LVL19
 4075 0175 1E000000 		.4byte	.LVL20
 4076 0179 0100     		.2byte	0x1
 4077 017b 50       		.byte	0x50
 4078 017c 1E000000 		.4byte	.LVL20
 4079 0180 30000000 		.4byte	.LFE124
 4080 0184 0400     		.2byte	0x4
 4081 0186 F3       		.byte	0xf3
 4082 0187 01       		.uleb128 0x1
ARM GAS  /tmp/ccSwRXu6.s 			page 73


 4083 0188 50       		.byte	0x50
 4084 0189 9F       		.byte	0x9f
 4085 018a 00000000 		.4byte	0
 4086 018e 00000000 		.4byte	0
 4087              	.LLST11:
 4088 0192 00000000 		.4byte	.LFB118
 4089 0196 06000000 		.4byte	.LCFI5
 4090 019a 0200     		.2byte	0x2
 4091 019c 7D       		.byte	0x7d
 4092 019d 00       		.sleb128 0
 4093 019e 06000000 		.4byte	.LCFI5
 4094 01a2 FA000000 		.4byte	.LFE118
 4095 01a6 0200     		.2byte	0x2
 4096 01a8 7D       		.byte	0x7d
 4097 01a9 10       		.sleb128 16
 4098 01aa 00000000 		.4byte	0
 4099 01ae 00000000 		.4byte	0
 4100              	.LLST12:
 4101 01b2 00000000 		.4byte	.LVL21
 4102 01b6 21000000 		.4byte	.LVL23-1
 4103 01ba 0100     		.2byte	0x1
 4104 01bc 50       		.byte	0x50
 4105 01bd 21000000 		.4byte	.LVL23-1
 4106 01c1 4E000000 		.4byte	.LVL27
 4107 01c5 0100     		.2byte	0x1
 4108 01c7 54       		.byte	0x54
 4109 01c8 4E000000 		.4byte	.LVL27
 4110 01cc 51000000 		.4byte	.LVL28-1
 4111 01d0 0100     		.2byte	0x1
 4112 01d2 50       		.byte	0x50
 4113 01d3 51000000 		.4byte	.LVL28-1
 4114 01d7 FA000000 		.4byte	.LFE118
 4115 01db 0100     		.2byte	0x1
 4116 01dd 54       		.byte	0x54
 4117 01de 00000000 		.4byte	0
 4118 01e2 00000000 		.4byte	0
 4119              	.LLST13:
 4120 01e6 00000000 		.4byte	.LVL21
 4121 01ea 1E000000 		.4byte	.LVL22
 4122 01ee 0100     		.2byte	0x1
 4123 01f0 51       		.byte	0x51
 4124 01f1 1E000000 		.4byte	.LVL22
 4125 01f5 30000000 		.4byte	.LVL24
 4126 01f9 0100     		.2byte	0x1
 4127 01fb 55       		.byte	0x55
 4128 01fc 30000000 		.4byte	.LVL24
 4129 0200 4E000000 		.4byte	.LVL27
 4130 0204 0400     		.2byte	0x4
 4131 0206 F3       		.byte	0xf3
 4132 0207 01       		.uleb128 0x1
 4133 0208 51       		.byte	0x51
 4134 0209 9F       		.byte	0x9f
 4135 020a 4E000000 		.4byte	.LVL27
 4136 020e 51000000 		.4byte	.LVL28-1
 4137 0212 0100     		.2byte	0x1
 4138 0214 51       		.byte	0x51
 4139 0215 51000000 		.4byte	.LVL28-1
ARM GAS  /tmp/ccSwRXu6.s 			page 74


 4140 0219 88000000 		.4byte	.LVL34
 4141 021d 0100     		.2byte	0x1
 4142 021f 55       		.byte	0x55
 4143 0220 88000000 		.4byte	.LVL34
 4144 0224 98000000 		.4byte	.LVL39
 4145 0228 0400     		.2byte	0x4
 4146 022a F3       		.byte	0xf3
 4147 022b 01       		.uleb128 0x1
 4148 022c 51       		.byte	0x51
 4149 022d 9F       		.byte	0x9f
 4150 022e 98000000 		.4byte	.LVL39
 4151 0232 B0000000 		.4byte	.LVL41
 4152 0236 0100     		.2byte	0x1
 4153 0238 55       		.byte	0x55
 4154 0239 B0000000 		.4byte	.LVL41
 4155 023d EA000000 		.4byte	.LVL48
 4156 0241 0400     		.2byte	0x4
 4157 0243 F3       		.byte	0xf3
 4158 0244 01       		.uleb128 0x1
 4159 0245 51       		.byte	0x51
 4160 0246 9F       		.byte	0x9f
 4161 0247 EA000000 		.4byte	.LVL48
 4162 024b FA000000 		.4byte	.LFE118
 4163 024f 0100     		.2byte	0x1
 4164 0251 55       		.byte	0x55
 4165 0252 00000000 		.4byte	0
 4166 0256 00000000 		.4byte	0
 4167              	.LLST14:
 4168 025a 40000000 		.4byte	.LVL25
 4169 025e 4B000000 		.4byte	.LVL26-1
 4170 0262 0100     		.2byte	0x1
 4171 0264 52       		.byte	0x52
 4172 0265 00000000 		.4byte	0
 4173 0269 00000000 		.4byte	0
 4174              	.LLST15:
 4175 026d 40000000 		.4byte	.LVL25
 4176 0271 4B000000 		.4byte	.LVL26-1
 4177 0275 0F00     		.2byte	0xf
 4178 0277 74       		.byte	0x74
 4179 0278 10       		.sleb128 16
 4180 0279 06       		.byte	0x6
 4181 027a 23       		.byte	0x23
 4182 027b 02       		.uleb128 0x2
 4183 027c 94       		.byte	0x94
 4184 027d 02       		.byte	0x2
 4185 027e 0A       		.byte	0xa
 4186 027f FFFF     		.2byte	0xffff
 4187 0281 1A       		.byte	0x1a
 4188 0282 72       		.byte	0x72
 4189 0283 00       		.sleb128 0
 4190 0284 1E       		.byte	0x1e
 4191 0285 9F       		.byte	0x9f
 4192 0286 00000000 		.4byte	0
 4193 028a 00000000 		.4byte	0
 4194              	.LLST16:
 4195 028e 76000000 		.4byte	.LVL31
 4196 0292 78000000 		.4byte	.LVL32
ARM GAS  /tmp/ccSwRXu6.s 			page 75


 4197 0296 0100     		.2byte	0x1
 4198 0298 53       		.byte	0x53
 4199 0299 00000000 		.4byte	0
 4200 029d 00000000 		.4byte	0
 4201              	.LLST17:
 4202 02a1 7A000000 		.4byte	.LVL33
 4203 02a5 87000000 		.4byte	.LVL34-1
 4204 02a9 0100     		.2byte	0x1
 4205 02ab 53       		.byte	0x53
 4206 02ac 00000000 		.4byte	0
 4207 02b0 00000000 		.4byte	0
 4208              	.LLST18:
 4209 02b4 8E000000 		.4byte	.LVL36
 4210 02b8 90000000 		.4byte	.LVL37
 4211 02bc 0100     		.2byte	0x1
 4212 02be 53       		.byte	0x53
 4213 02bf 00000000 		.4byte	0
 4214 02c3 00000000 		.4byte	0
 4215              	.LLST19:
 4216 02c7 B4000000 		.4byte	.LVL42
 4217 02cb BF000000 		.4byte	.LVL43-1
 4218 02cf 0100     		.2byte	0x1
 4219 02d1 52       		.byte	0x52
 4220 02d2 00000000 		.4byte	0
 4221 02d6 00000000 		.4byte	0
 4222              	.LLST20:
 4223 02da B4000000 		.4byte	.LVL42
 4224 02de BF000000 		.4byte	.LVL43-1
 4225 02e2 0F00     		.2byte	0xf
 4226 02e4 74       		.byte	0x74
 4227 02e5 10       		.sleb128 16
 4228 02e6 06       		.byte	0x6
 4229 02e7 23       		.byte	0x23
 4230 02e8 02       		.uleb128 0x2
 4231 02e9 94       		.byte	0x94
 4232 02ea 02       		.byte	0x2
 4233 02eb 0A       		.byte	0xa
 4234 02ec FFFF     		.2byte	0xffff
 4235 02ee 1A       		.byte	0x1a
 4236 02ef 72       		.byte	0x72
 4237 02f0 00       		.sleb128 0
 4238 02f1 1E       		.byte	0x1e
 4239 02f2 9F       		.byte	0x9f
 4240 02f3 00000000 		.4byte	0
 4241 02f7 00000000 		.4byte	0
 4242              	.LLST21:
 4243 02fb 88000000 		.4byte	.LVL34
 4244 02ff 8A000000 		.4byte	.LVL35
 4245 0303 0100     		.2byte	0x1
 4246 0305 53       		.byte	0x53
 4247 0306 CC000000 		.4byte	.LVL44
 4248 030a D4000000 		.4byte	.LVL46
 4249 030e 0100     		.2byte	0x1
 4250 0310 53       		.byte	0x53
 4251 0311 00000000 		.4byte	0
 4252 0315 00000000 		.4byte	0
 4253              	.LLST22:
ARM GAS  /tmp/ccSwRXu6.s 			page 76


 4254 0319 D2000000 		.4byte	.LVL45
 4255 031d DD000000 		.4byte	.LVL47-1
 4256 0321 0100     		.2byte	0x1
 4257 0323 51       		.byte	0x51
 4258 0324 00000000 		.4byte	0
 4259 0328 00000000 		.4byte	0
 4260              	.LLST23:
 4261 032c 00000000 		.4byte	.LFB119
 4262 0330 0E000000 		.4byte	.LCFI6
 4263 0334 0200     		.2byte	0x2
 4264 0336 7D       		.byte	0x7d
 4265 0337 00       		.sleb128 0
 4266 0338 0E000000 		.4byte	.LCFI6
 4267 033c 74000000 		.4byte	.LFE119
 4268 0340 0200     		.2byte	0x2
 4269 0342 7D       		.byte	0x7d
 4270 0343 08       		.sleb128 8
 4271 0344 00000000 		.4byte	0
 4272 0348 00000000 		.4byte	0
 4273              	.LLST24:
 4274 034c 0C000000 		.4byte	.LVL50
 4275 0350 1C000000 		.4byte	.LVL51
 4276 0354 0100     		.2byte	0x1
 4277 0356 52       		.byte	0x52
 4278 0357 00000000 		.4byte	0
 4279 035b 00000000 		.4byte	0
 4280              	.LLST25:
 4281 035f 48000000 		.4byte	.LVL55
 4282 0363 50000000 		.4byte	.LVL57
 4283 0367 0100     		.2byte	0x1
 4284 0369 53       		.byte	0x53
 4285 036a 5A000000 		.4byte	.LVL58
 4286 036e 5C000000 		.4byte	.LVL59
 4287 0372 0100     		.2byte	0x1
 4288 0374 53       		.byte	0x53
 4289 0375 00000000 		.4byte	0
 4290 0379 00000000 		.4byte	0
 4291              	.LLST26:
 4292 037d 4C000000 		.4byte	.LVL56
 4293 0381 59000000 		.4byte	.LVL58-1
 4294 0385 0100     		.2byte	0x1
 4295 0387 50       		.byte	0x50
 4296 0388 00000000 		.4byte	0
 4297 038c 00000000 		.4byte	0
 4298              	.LLST27:
 4299 0390 60000000 		.4byte	.LVL60
 4300 0394 67000000 		.4byte	.LVL61-1
 4301 0398 0100     		.2byte	0x1
 4302 039a 53       		.byte	0x53
 4303 039b 00000000 		.4byte	0
 4304 039f 00000000 		.4byte	0
 4305              		.section	.debug_aranges,"",%progbits
 4306 0000 6C000000 		.4byte	0x6c
 4307 0004 0200     		.2byte	0x2
 4308 0006 00000000 		.4byte	.Ldebug_info0
 4309 000a 04       		.byte	0x4
 4310 000b 00       		.byte	0
ARM GAS  /tmp/ccSwRXu6.s 			page 77


 4311 000c 0000     		.2byte	0
 4312 000e 0000     		.2byte	0
 4313 0010 00000000 		.4byte	.LFB120
 4314 0014 38000000 		.4byte	.LFE120-.LFB120
 4315 0018 00000000 		.4byte	.LFB121
 4316 001c 68000000 		.4byte	.LFE121-.LFB121
 4317 0020 00000000 		.4byte	.LFB122
 4318 0024 38000000 		.4byte	.LFE122-.LFB122
 4319 0028 00000000 		.4byte	.LFB123
 4320 002c 80000000 		.4byte	.LFE123-.LFB123
 4321 0030 00000000 		.4byte	.LFB124
 4322 0034 30000000 		.4byte	.LFE124-.LFB124
 4323 0038 00000000 		.4byte	.LFB118
 4324 003c FA000000 		.4byte	.LFE118-.LFB118
 4325 0040 00000000 		.4byte	.LFB119
 4326 0044 74000000 		.4byte	.LFE119-.LFB119
 4327 0048 00000000 		.4byte	.LFB125
 4328 004c 12000000 		.4byte	.LFE125-.LFB125
 4329 0050 00000000 		.4byte	.LFB126
 4330 0054 12000000 		.4byte	.LFE126-.LFB126
 4331 0058 00000000 		.4byte	.LFB127
 4332 005c 12000000 		.4byte	.LFE127-.LFB127
 4333 0060 00000000 		.4byte	.LFB128
 4334 0064 12000000 		.4byte	.LFE128-.LFB128
 4335 0068 00000000 		.4byte	0
 4336 006c 00000000 		.4byte	0
 4337              		.section	.debug_ranges,"",%progbits
 4338              	.Ldebug_ranges0:
 4339 0000 00000000 		.4byte	.LFB120
 4340 0004 38000000 		.4byte	.LFE120
 4341 0008 00000000 		.4byte	.LFB121
 4342 000c 68000000 		.4byte	.LFE121
 4343 0010 00000000 		.4byte	.LFB122
 4344 0014 38000000 		.4byte	.LFE122
 4345 0018 00000000 		.4byte	.LFB123
 4346 001c 80000000 		.4byte	.LFE123
 4347 0020 00000000 		.4byte	.LFB124
 4348 0024 30000000 		.4byte	.LFE124
 4349 0028 00000000 		.4byte	.LFB118
 4350 002c FA000000 		.4byte	.LFE118
 4351 0030 00000000 		.4byte	.LFB119
 4352 0034 74000000 		.4byte	.LFE119
 4353 0038 00000000 		.4byte	.LFB125
 4354 003c 12000000 		.4byte	.LFE125
 4355 0040 00000000 		.4byte	.LFB126
 4356 0044 12000000 		.4byte	.LFE126
 4357 0048 00000000 		.4byte	.LFB127
 4358 004c 12000000 		.4byte	.LFE127
 4359 0050 00000000 		.4byte	.LFB128
 4360 0054 12000000 		.4byte	.LFE128
 4361 0058 00000000 		.4byte	0
 4362 005c 00000000 		.4byte	0
 4363              		.section	.debug_line,"",%progbits
 4364              	.Ldebug_line0:
 4365 0000 0E040000 		.section	.debug_str,"MS",%progbits,1
 4365      02001602 
 4365      00000201 
ARM GAS  /tmp/ccSwRXu6.s 			page 78


 4365      FB0E0D00 
 4365      01010101 
 4366              	.LASF167:
 4367 0000 4D314152 		.ascii	"M1AR\000"
 4367      00
 4368              	.LASF2:
 4369 0005 73697A65 		.ascii	"size_t\000"
 4369      5F7400
 4370              	.LASF111:
 4371 000c 54494D38 		.ascii	"TIM8_UP_TIM13_IRQn\000"
 4371      5F55505F 
 4371      54494D31 
 4371      335F4952 
 4371      516E00
 4372              	.LASF234:
 4373 001f 73717231 		.ascii	"sqr1\000"
 4373      00
 4374              	.LASF235:
 4375 0024 73717232 		.ascii	"sqr2\000"
 4375      00
 4376              	.LASF49:
 4377 0029 73697A65 		.ascii	"sizetype\000"
 4377      74797065 
 4377      00
 4378              	.LASF241:
 4379 0032 6164635F 		.ascii	"adc_lld_start\000"
 4379      6C6C645F 
 4379      73746172 
 4379      7400
 4380              	.LASF23:
 4381 0040 73797374 		.ascii	"systime_t\000"
 4381      696D655F 
 4381      7400
 4382              	.LASF195:
 4383 004a 504C4C49 		.ascii	"PLLI2SCFGR\000"
 4383      32534346 
 4383      475200
 4384              	.LASF28:
 4385 0055 705F6374 		.ascii	"p_ctx\000"
 4385      7800
 4386              	.LASF20:
 4387 005b 74707269 		.ascii	"tprio_t\000"
 4387      6F5F7400 
 4388              	.LASF226:
 4389 0063 61646363 		.ascii	"adccallback_t\000"
 4389      616C6C62 
 4389      61636B5F 
 4389      7400
 4390              	.LASF155:
 4391 0071 53515231 		.ascii	"SQR1\000"
 4391      00
 4392              	.LASF156:
 4393 0076 53515232 		.ascii	"SQR2\000"
 4393      00
 4394              	.LASF157:
 4395 007b 53515233 		.ascii	"SQR3\000"
 4395      00
ARM GAS  /tmp/ccSwRXu6.s 			page 79


 4396              	.LASF38:
 4397 0080 705F6D73 		.ascii	"p_msgqueue\000"
 4397      67717565 
 4397      756500
 4398              	.LASF8:
 4399 008b 696E7433 		.ascii	"int32_t\000"
 4399      325F7400 
 4400              	.LASF210:
 4401 0093 61646373 		.ascii	"adcstate_t\000"
 4401      74617465 
 4401      5F7400
 4402              	.LASF260:
 4403 009e 646D6153 		.ascii	"dmaStreamRelease\000"
 4403      74726561 
 4403      6D52656C 
 4403      65617365 
 4403      00
 4404              	.LASF213:
 4405 00af 4144435F 		.ascii	"ADC_ERR_DMAFAILURE\000"
 4405      4552525F 
 4405      444D4146 
 4405      41494C55 
 4405      524500
 4406              	.LASF262:
 4407 00c2 63685363 		.ascii	"chSchReadyI\000"
 4407      68526561 
 4407      64794900 
 4408              	.LASF124:
 4409 00ce 444D4132 		.ascii	"DMA2_Stream1_IRQn\000"
 4409      5F537472 
 4409      65616D31 
 4409      5F495251 
 4409      6E00
 4410              	.LASF118:
 4411 00e0 53504933 		.ascii	"SPI3_IRQn\000"
 4411      5F495251 
 4411      6E00
 4412              	.LASF71:
 4413 00ea 464C4153 		.ascii	"FLASH_IRQn\000"
 4413      485F4952 
 4413      516E00
 4414              	.LASF145:
 4415 00f5 44434D49 		.ascii	"DCMI_IRQn\000"
 4415      5F495251 
 4415      6E00
 4416              	.LASF218:
 4417 00ff 636F6E66 		.ascii	"config\000"
 4417      696700
 4418              	.LASF217:
 4419 0106 73746174 		.ascii	"state\000"
 4419      6500
 4420              	.LASF95:
 4421 010c 54494D32 		.ascii	"TIM2_IRQn\000"
 4421      5F495251 
 4421      6E00
 4422              	.LASF254:
 4423 0116 61646353 		.ascii	"adcSTM32DisableVBATE\000"
ARM GAS  /tmp/ccSwRXu6.s 			page 80


 4423      544D3332 
 4423      44697361 
 4423      626C6556 
 4423      42415445 
 4424              	.LASF231:
 4425 012b 6572726F 		.ascii	"error_cb\000"
 4425      725F6362 
 4425      00
 4426              	.LASF131:
 4427 0134 43414E32 		.ascii	"CAN2_RX0_IRQn\000"
 4427      5F525830 
 4427      5F495251 
 4427      6E00
 4428              	.LASF138:
 4429 0142 55534152 		.ascii	"USART6_IRQn\000"
 4429      54365F49 
 4429      52516E00 
 4430              	.LASF52:
 4431 014e 6D5F6F77 		.ascii	"m_owner\000"
 4431      6E657200 
 4432              	.LASF162:
 4433 0156 4A445234 		.ascii	"JDR4\000"
 4433      00
 4434              	.LASF230:
 4435 015b 656E645F 		.ascii	"end_cb\000"
 4435      636200
 4436              	.LASF55:
 4437 0162 65786974 		.ascii	"exitcode\000"
 4437      636F6465 
 4437      00
 4438              	.LASF143:
 4439 016b 4F54475F 		.ascii	"OTG_HS_WKUP_IRQn\000"
 4439      48535F57 
 4439      4B55505F 
 4439      4952516E 
 4439      00
 4440              	.LASF57:
 4441 017c 65776D61 		.ascii	"ewmask\000"
 4441      736B00
 4442              	.LASF110:
 4443 0183 54494D38 		.ascii	"TIM8_BRK_TIM12_IRQn\000"
 4443      5F42524B 
 4443      5F54494D 
 4443      31325F49 
 4443      52516E00 
 4444              	.LASF186:
 4445 0197 41484232 		.ascii	"AHB2LPENR\000"
 4445      4C50454E 
 4445      5200
 4446              	.LASF29:
 4447 01a1 705F6E65 		.ascii	"p_newer\000"
 4447      77657200 
 4448              	.LASF9:
 4449 01a9 6C6F6E67 		.ascii	"long int\000"
 4449      20696E74 
 4449      00
 4450              	.LASF25:
ARM GAS  /tmp/ccSwRXu6.s 			page 81


 4451 01b2 705F6E65 		.ascii	"p_next\000"
 4451      787400
 4452              	.LASF26:
 4453 01b9 705F7072 		.ascii	"p_prev\000"
 4453      657600
 4454              	.LASF225:
 4455 01c0 646D616D 		.ascii	"dmamode\000"
 4455      6F646500 
 4456              	.LASF135:
 4457 01c8 444D4132 		.ascii	"DMA2_Stream5_IRQn\000"
 4457      5F537472 
 4457      65616D35 
 4457      5F495251 
 4457      6E00
 4458              	.LASF17:
 4459 01da 74737461 		.ascii	"tstate_t\000"
 4459      74655F74 
 4459      00
 4460              	.LASF250:
 4461 01e3 56656374 		.ascii	"Vector88\000"
 4461      6F723838 
 4461      00
 4462              	.LASF41:
 4463 01ec 705F6D74 		.ascii	"p_mtxlist\000"
 4463      786C6973 
 4463      7400
 4464              	.LASF93:
 4465 01f6 54494D31 		.ascii	"TIM1_TRG_COM_TIM11_IRQn\000"
 4465      5F545247 
 4465      5F434F4D 
 4465      5F54494D 
 4465      31315F49 
 4466              	.LASF46:
 4467 020e 72656761 		.ascii	"regarm_t\000"
 4467      726D5F74 
 4467      00
 4468              	.LASF242:
 4469 0217 6164635F 		.ascii	"adc_lld_stop\000"
 4469      6C6C645F 
 4469      73746F70 
 4469      00
 4470              	.LASF183:
 4471 0224 41504232 		.ascii	"APB2ENR\000"
 4471      454E5200 
 4472              	.LASF185:
 4473 022c 41484231 		.ascii	"AHB1LPENR\000"
 4473      4C50454E 
 4473      5200
 4474              	.LASF66:
 4475 0236 53797354 		.ascii	"SysTick_IRQn\000"
 4475      69636B5F 
 4475      4952516E 
 4475      00
 4476              	.LASF106:
 4477 0243 55534152 		.ascii	"USART3_IRQn\000"
 4477      54335F49 
 4477      52516E00 
ARM GAS  /tmp/ccSwRXu6.s 			page 82


 4478              	.LASF251:
 4479 024f 61646353 		.ascii	"adcSTM32EnableTSVREFE\000"
 4479      544D3332 
 4479      456E6162 
 4479      6C655453 
 4479      56524546 
 4480              	.LASF1:
 4481 0265 7369676E 		.ascii	"signed char\000"
 4481      65642063 
 4481      68617200 
 4482              	.LASF35:
 4483 0271 705F7072 		.ascii	"p_preempt\000"
 4483      65656D70 
 4483      7400
 4484              	.LASF3:
 4485 027b 75696E74 		.ascii	"uint8_t\000"
 4485      385F7400 
 4486              	.LASF22:
 4487 0283 6576656E 		.ascii	"eventmask_t\000"
 4487      746D6173 
 4487      6B5F7400 
 4488              	.LASF48:
 4489 028f 636F6E74 		.ascii	"context\000"
 4489      65787400 
 4490              	.LASF80:
 4491 0297 444D4131 		.ascii	"DMA1_Stream2_IRQn\000"
 4491      5F537472 
 4491      65616D32 
 4491      5F495251 
 4491      6E00
 4492              	.LASF174:
 4493 02a9 52455345 		.ascii	"RESERVED0\000"
 4493      52564544 
 4493      3000
 4494              	.LASF177:
 4495 02b3 52455345 		.ascii	"RESERVED1\000"
 4495      52564544 
 4495      3100
 4496              	.LASF4:
 4497 02bd 756E7369 		.ascii	"unsigned char\000"
 4497      676E6564 
 4497      20636861 
 4497      7200
 4498              	.LASF127:
 4499 02cb 444D4132 		.ascii	"DMA2_Stream4_IRQn\000"
 4499      5F537472 
 4499      65616D34 
 4499      5F495251 
 4499      6E00
 4500              	.LASF188:
 4501 02dd 52455345 		.ascii	"RESERVED4\000"
 4501      52564544 
 4501      3400
 4502              	.LASF191:
 4503 02e7 52455345 		.ascii	"RESERVED5\000"
 4503      52564544 
 4503      3500
ARM GAS  /tmp/ccSwRXu6.s 			page 83


 4504              	.LASF193:
 4505 02f1 52455345 		.ascii	"RESERVED6\000"
 4505      52564544 
 4505      3600
 4506              	.LASF263:
 4507 02fb 474E5520 		.ascii	"GNU C 4.7.3 20130312 (release) [ARM/embedded-4_7-br"
 4507      4320342E 
 4507      372E3320 
 4507      32303133 
 4507      30333132 
 4508 032e 616E6368 		.ascii	"anch revision 196615]\000"
 4508      20726576 
 4508      6973696F 
 4508      6E203139 
 4508      36363135 
 4509              	.LASF215:
 4510 0344 61646365 		.ascii	"adcerror_t\000"
 4510      72726F72 
 4510      5F7400
 4511              	.LASF99:
 4512 034f 49324331 		.ascii	"I2C1_ER_IRQn\000"
 4512      5F45525F 
 4512      4952516E 
 4512      00
 4513              	.LASF204:
 4514 035c 4144435F 		.ascii	"ADC_UNINIT\000"
 4514      554E494E 
 4514      495400
 4515              	.LASF133:
 4516 0367 43414E32 		.ascii	"CAN2_SCE_IRQn\000"
 4516      5F534345 
 4516      5F495251 
 4516      6E00
 4517              	.LASF206:
 4518 0375 4144435F 		.ascii	"ADC_READY\000"
 4518      52454144 
 4518      5900
 4519              	.LASF15:
 4520 037f 5F426F6F 		.ascii	"_Bool\000"
 4520      6C00
 4521              	.LASF181:
 4522 0385 52455345 		.ascii	"RESERVED2\000"
 4522      52564544 
 4522      3200
 4523              	.LASF184:
 4524 038f 52455345 		.ascii	"RESERVED3\000"
 4524      52564544 
 4524      3300
 4525              	.LASF117:
 4526 0399 54494D35 		.ascii	"TIM5_IRQn\000"
 4526      5F495251 
 4526      6E00
 4527              	.LASF211:
 4528 03a3 61646373 		.ascii	"adcsample_t\000"
 4528      616D706C 
 4528      655F7400 
 4529              	.LASF62:
ARM GAS  /tmp/ccSwRXu6.s 			page 84


 4530 03af 55736167 		.ascii	"UsageFault_IRQn\000"
 4530      65466175 
 4530      6C745F49 
 4530      52516E00 
 4531              	.LASF58:
 4532 03bf 63686172 		.ascii	"char\000"
 4532      00
 4533              	.LASF199:
 4534 03c4 69736869 		.ascii	"ishift\000"
 4534      667400
 4535              	.LASF27:
 4536 03cb 705F7072 		.ascii	"p_prio\000"
 4536      696F00
 4537              	.LASF179:
 4538 03d2 41484232 		.ascii	"AHB2ENR\000"
 4538      454E5200 
 4539              	.LASF56:
 4540 03da 77746F62 		.ascii	"wtobjp\000"
 4540      6A7000
 4541              	.LASF87:
 4542 03e1 43414E31 		.ascii	"CAN1_RX0_IRQn\000"
 4542      5F525830 
 4542      5F495251 
 4542      6E00
 4543              	.LASF209:
 4544 03ef 4144435F 		.ascii	"ADC_ERROR\000"
 4544      4552524F 
 4544      5200
 4545              	.LASF247:
 4546 03f9 666C6167 		.ascii	"flags\000"
 4546      7300
 4547              	.LASF236:
 4548 03ff 73717233 		.ascii	"sqr3\000"
 4548      00
 4549              	.LASF228:
 4550 0404 63697263 		.ascii	"circular\000"
 4550      756C6172 
 4550      00
 4551              	.LASF97:
 4552 040d 54494D34 		.ascii	"TIM4_IRQn\000"
 4552      5F495251 
 4552      6E00
 4553              	.LASF105:
 4554 0417 55534152 		.ascii	"USART2_IRQn\000"
 4554      54325F49 
 4554      52516E00 
 4555              	.LASF197:
 4556 0423 73747265 		.ascii	"stream\000"
 4556      616D00
 4557              	.LASF261:
 4558 042a 646D6153 		.ascii	"dmaStreamAllocate\000"
 4558      74726561 
 4558      6D416C6C 
 4558      6F636174 
 4558      6500
 4559              	.LASF192:
 4560 043c 42444352 		.ascii	"BDCR\000"
ARM GAS  /tmp/ccSwRXu6.s 			page 85


 4560      00
 4561              	.LASF219:
 4562 0441 73616D70 		.ascii	"samples\000"
 4562      6C657300 
 4563              	.LASF98:
 4564 0449 49324331 		.ascii	"I2C1_EV_IRQn\000"
 4564      5F45565F 
 4564      4952516E 
 4564      00
 4565              	.LASF163:
 4566 0456 4144435F 		.ascii	"ADC_TypeDef\000"
 4566      54797065 
 4566      44656600 
 4567              	.LASF47:
 4568 0462 696E7463 		.ascii	"intctx\000"
 4568      747800
 4569              	.LASF40:
 4570 0469 705F6570 		.ascii	"p_epending\000"
 4570      656E6469 
 4570      6E6700
 4571              	.LASF170:
 4572 0474 43464752 		.ascii	"CFGR\000"
 4572      00
 4573              	.LASF94:
 4574 0479 54494D31 		.ascii	"TIM1_CC_IRQn\000"
 4574      5F43435F 
 4574      4952516E 
 4574      00
 4575              	.LASF147:
 4576 0486 48415348 		.ascii	"HASH_RNG_IRQn\000"
 4576      5F524E47 
 4576      5F495251 
 4576      6E00
 4577              	.LASF74:
 4578 0494 45585449 		.ascii	"EXTI1_IRQn\000"
 4578      315F4952 
 4578      516E00
 4579              	.LASF86:
 4580 049f 43414E31 		.ascii	"CAN1_TX_IRQn\000"
 4580      5F54585F 
 4580      4952516E 
 4580      00
 4581              	.LASF83:
 4582 04ac 444D4131 		.ascii	"DMA1_Stream5_IRQn\000"
 4582      5F537472 
 4582      65616D35 
 4582      5F495251 
 4582      6E00
 4583              	.LASF112:
 4584 04be 54494D38 		.ascii	"TIM8_TRG_COM_TIM14_IRQn\000"
 4584      5F545247 
 4584      5F434F4D 
 4584      5F54494D 
 4584      31345F49 
 4585              	.LASF137:
 4586 04d6 444D4132 		.ascii	"DMA2_Stream7_IRQn\000"
 4586      5F537472 
ARM GAS  /tmp/ccSwRXu6.s 			page 86


 4586      65616D37 
 4586      5F495251 
 4586      6E00
 4587              	.LASF134:
 4588 04e8 4F54475F 		.ascii	"OTG_FS_IRQn\000"
 4588      46535F49 
 4588      52516E00 
 4589              	.LASF59:
 4590 04f4 4E6F6E4D 		.ascii	"NonMaskableInt_IRQn\000"
 4590      61736B61 
 4590      626C6549 
 4590      6E745F49 
 4590      52516E00 
 4591              	.LASF67:
 4592 0508 57574447 		.ascii	"WWDG_IRQn\000"
 4592      5F495251 
 4592      6E00
 4593              	.LASF11:
 4594 0512 6C6F6E67 		.ascii	"long unsigned int\000"
 4594      20756E73 
 4594      69676E65 
 4594      6420696E 
 4594      7400
 4595              	.LASF182:
 4596 0524 41504231 		.ascii	"APB1ENR\000"
 4596      454E5200 
 4597              	.LASF224:
 4598 052c 646D6173 		.ascii	"dmastp\000"
 4598      747000
 4599              	.LASF60:
 4600 0533 4D656D6F 		.ascii	"MemoryManagement_IRQn\000"
 4600      72794D61 
 4600      6E616765 
 4600      6D656E74 
 4600      5F495251 
 4601              	.LASF69:
 4602 0549 54414D50 		.ascii	"TAMP_STAMP_IRQn\000"
 4602      5F535441 
 4602      4D505F49 
 4602      52516E00 
 4603              	.LASF89:
 4604 0559 43414E31 		.ascii	"CAN1_SCE_IRQn\000"
 4604      5F534345 
 4604      5F495251 
 4604      6E00
 4605              	.LASF256:
 4606 0567 5F73746D 		.ascii	"_stm32_dma_streams\000"
 4606      33325F64 
 4606      6D615F73 
 4606      74726561 
 4606      6D7300
 4607              	.LASF123:
 4608 057a 444D4132 		.ascii	"DMA2_Stream0_IRQn\000"
 4608      5F537472 
 4608      65616D30 
 4608      5F495251 
 4608      6E00
ARM GAS  /tmp/ccSwRXu6.s 			page 87


 4609              	.LASF149:
 4610 058c 534D5052 		.ascii	"SMPR1\000"
 4610      3100
 4611              	.LASF150:
 4612 0592 534D5052 		.ascii	"SMPR2\000"
 4612      3200
 4613              	.LASF202:
 4614 0598 73746D33 		.ascii	"stm32_dma_stream_t\000"
 4614      325F646D 
 4614      615F7374 
 4614      7265616D 
 4614      5F7400
 4615              	.LASF101:
 4616 05ab 49324332 		.ascii	"I2C2_ER_IRQn\000"
 4616      5F45525F 
 4616      4952516E 
 4616      00
 4617              	.LASF237:
 4618 05b8 41444343 		.ascii	"ADCConversionGroup\000"
 4618      6F6E7665 
 4618      7273696F 
 4618      6E47726F 
 4618      757000
 4619              	.LASF208:
 4620 05cb 4144435F 		.ascii	"ADC_COMPLETE\000"
 4620      434F4D50 
 4620      4C455445 
 4620      00
 4621              	.LASF232:
 4622 05d8 736D7072 		.ascii	"smpr1\000"
 4622      3100
 4623              	.LASF233:
 4624 05de 736D7072 		.ascii	"smpr2\000"
 4624      3200
 4625              	.LASF244:
 4626 05e4 6164635F 		.ascii	"adc_lld_start_conversion\000"
 4626      6C6C645F 
 4626      73746172 
 4626      745F636F 
 4626      6E766572 
 4627              	.LASF61:
 4628 05fd 42757346 		.ascii	"BusFault_IRQn\000"
 4628      61756C74 
 4628      5F495251 
 4628      6E00
 4629              	.LASF169:
 4630 060b 504C4C43 		.ascii	"PLLCFGR\000"
 4630      46475200 
 4631              	.LASF120:
 4632 0613 55415254 		.ascii	"UART5_IRQn\000"
 4632      355F4952 
 4632      516E00
 4633              	.LASF91:
 4634 061e 54494D31 		.ascii	"TIM1_BRK_TIM9_IRQn\000"
 4634      5F42524B 
 4634      5F54494D 
 4634      395F4952 
ARM GAS  /tmp/ccSwRXu6.s 			page 88


 4634      516E00
 4635              	.LASF50:
 4636 0631 4D757465 		.ascii	"Mutex\000"
 4636      7800
 4637              	.LASF122:
 4638 0637 54494D37 		.ascii	"TIM7_IRQn\000"
 4638      5F495251 
 4638      6E00
 4639              	.LASF12:
 4640 0641 6C6F6E67 		.ascii	"long long int\000"
 4640      206C6F6E 
 4640      6720696E 
 4640      7400
 4641              	.LASF129:
 4642 064f 4554485F 		.ascii	"ETH_WKUP_IRQn\000"
 4642      574B5550 
 4642      5F495251 
 4642      6E00
 4643              	.LASF103:
 4644 065d 53504932 		.ascii	"SPI2_IRQn\000"
 4644      5F495251 
 4644      6E00
 4645              	.LASF144:
 4646 0667 4F54475F 		.ascii	"OTG_HS_IRQn\000"
 4646      48535F49 
 4646      52516E00 
 4647              	.LASF51:
 4648 0673 6D5F7175 		.ascii	"m_queue\000"
 4648      65756500 
 4649              	.LASF264:
 4650 067b 2E2F4368 		.ascii	"./ChibiOS/os/hal/platforms/STM32F4xx/adc_lld.c\000"
 4650      6962694F 
 4650      532F6F73 
 4650      2F68616C 
 4650      2F706C61 
 4651              	.LASF102:
 4652 06aa 53504931 		.ascii	"SPI1_IRQn\000"
 4652      5F495251 
 4652      6E00
 4653              	.LASF243:
 4654 06b4 61646370 		.ascii	"adcp\000"
 4654      00
 4655              	.LASF227:
 4656 06b9 61646365 		.ascii	"adcerrorcallback_t\000"
 4656      72726F72 
 4656      63616C6C 
 4656      6261636B 
 4656      5F7400
 4657              	.LASF63:
 4658 06cc 53564361 		.ascii	"SVCall_IRQn\000"
 4658      6C6C5F49 
 4658      52516E00 
 4659              	.LASF176:
 4660 06d8 41504232 		.ascii	"APB2RSTR\000"
 4660      52535452 
 4660      00
 4661              	.LASF220:
ARM GAS  /tmp/ccSwRXu6.s 			page 89


 4662 06e1 64657074 		.ascii	"depth\000"
 4662      6800
 4663              	.LASF223:
 4664 06e7 6D757465 		.ascii	"mutex\000"
 4664      7800
 4665              	.LASF148:
 4666 06ed 4650555F 		.ascii	"FPU_IRQn\000"
 4666      4952516E 
 4666      00
 4667              	.LASF119:
 4668 06f6 55415254 		.ascii	"UART4_IRQn\000"
 4668      345F4952 
 4668      516E00
 4669              	.LASF265:
 4670 0701 2F686F6D 		.ascii	"/home/thiago/Sources/STM32/STM32F4-Template\000"
 4670      652F7468 
 4670      6961676F 
 4670      2F536F75 
 4670      72636573 
 4671              	.LASF190:
 4672 072d 41504232 		.ascii	"APB2LPENR\000"
 4672      4C50454E 
 4672      5200
 4673              	.LASF37:
 4674 0737 705F7761 		.ascii	"p_waiting\000"
 4674      6974696E 
 4674      6700
 4675              	.LASF109:
 4676 0741 4F54475F 		.ascii	"OTG_FS_WKUP_IRQn\000"
 4676      46535F57 
 4676      4B55505F 
 4676      4952516E 
 4676      00
 4677              	.LASF33:
 4678 0752 705F666C 		.ascii	"p_flags\000"
 4678      61677300 
 4679              	.LASF200:
 4680 075a 73656C66 		.ascii	"selfindex\000"
 4680      696E6465 
 4680      7800
 4681              	.LASF0:
 4682 0764 756E7369 		.ascii	"unsigned int\000"
 4682      676E6564 
 4682      20696E74 
 4682      00
 4683              	.LASF121:
 4684 0771 54494D36 		.ascii	"TIM6_DAC_IRQn\000"
 4684      5F444143 
 4684      5F495251 
 4684      6E00
 4685              	.LASF212:
 4686 077f 6164635F 		.ascii	"adc_channels_num_t\000"
 4686      6368616E 
 4686      6E656C73 
 4686      5F6E756D 
 4686      5F7400
 4687              	.LASF43:
ARM GAS  /tmp/ccSwRXu6.s 			page 90


 4688 0792 705F6D70 		.ascii	"p_mpool\000"
 4688      6F6F6C00 
 4689              	.LASF100:
 4690 079a 49324332 		.ascii	"I2C2_EV_IRQn\000"
 4690      5F45565F 
 4690      4952516E 
 4690      00
 4691              	.LASF34:
 4692 07a7 705F7265 		.ascii	"p_refs\000"
 4692      667300
 4693              	.LASF229:
 4694 07ae 6E756D5F 		.ascii	"num_channels\000"
 4694      6368616E 
 4694      6E656C73 
 4694      00
 4695              	.LASF268:
 4696 07bb 5F706F72 		.ascii	"_port_irq_epilogue\000"
 4696      745F6972 
 4696      715F6570 
 4696      696C6F67 
 4696      756500
 4697              	.LASF45:
 4698 07ce 54687265 		.ascii	"ThreadsList\000"
 4698      6164734C 
 4698      69737400 
 4699              	.LASF257:
 4700 07da 41444344 		.ascii	"ADCD1\000"
 4700      3100
 4701              	.LASF189:
 4702 07e0 41504231 		.ascii	"APB1LPENR\000"
 4702      4C50454E 
 4702      5200
 4703              	.LASF79:
 4704 07ea 444D4131 		.ascii	"DMA1_Stream1_IRQn\000"
 4704      5F537472 
 4704      65616D31 
 4704      5F495251 
 4704      6E00
 4705              	.LASF126:
 4706 07fc 444D4132 		.ascii	"DMA2_Stream3_IRQn\000"
 4706      5F537472 
 4706      65616D33 
 4706      5F495251 
 4706      6E00
 4707              	.LASF130:
 4708 080e 43414E32 		.ascii	"CAN2_TX_IRQn\000"
 4708      5F54585F 
 4708      4952516E 
 4708      00
 4709              	.LASF246:
 4710 081b 6164635F 		.ascii	"adc_lld_stop_conversion\000"
 4710      6C6C645F 
 4710      73746F70 
 4710      5F636F6E 
 4710      76657273 
 4711              	.LASF168:
 4712 0833 444D415F 		.ascii	"DMA_Stream_TypeDef\000"
ARM GAS  /tmp/ccSwRXu6.s 			page 91


 4712      53747265 
 4712      616D5F54 
 4712      79706544 
 4712      656600
 4713              	.LASF194:
 4714 0846 53534347 		.ascii	"SSCGR\000"
 4714      5200
 4715              	.LASF36:
 4716 084c 705F7469 		.ascii	"p_time\000"
 4716      6D6500
 4717              	.LASF266:
 4718 0853 4952516E 		.ascii	"IRQn\000"
 4718      00
 4719              	.LASF84:
 4720 0858 444D4131 		.ascii	"DMA1_Stream6_IRQn\000"
 4720      5F537472 
 4720      65616D36 
 4720      5F495251 
 4720      6E00
 4721              	.LASF173:
 4722 086a 41484233 		.ascii	"AHB3RSTR\000"
 4722      52535452 
 4722      00
 4723              	.LASF42:
 4724 0873 705F7265 		.ascii	"p_realprio\000"
 4724      616C7072 
 4724      696F00
 4725              	.LASF207:
 4726 087e 4144435F 		.ascii	"ADC_ACTIVE\000"
 4726      41435449 
 4726      564500
 4727              	.LASF78:
 4728 0889 444D4131 		.ascii	"DMA1_Stream0_IRQn\000"
 4728      5F537472 
 4728      65616D30 
 4728      5F495251 
 4728      6E00
 4729              	.LASF175:
 4730 089b 41504231 		.ascii	"APB1RSTR\000"
 4730      52535452 
 4730      00
 4731              	.LASF203:
 4732 08a4 73746D33 		.ascii	"stm32_dmaisr_t\000"
 4732      325F646D 
 4732      61697372 
 4732      5F7400
 4733              	.LASF108:
 4734 08b3 5254435F 		.ascii	"RTC_Alarm_IRQn\000"
 4734      416C6172 
 4734      6D5F4952 
 4734      516E00
 4735              	.LASF140:
 4736 08c2 49324333 		.ascii	"I2C3_ER_IRQn\000"
 4736      5F45525F 
 4736      4952516E 
 4736      00
 4737              	.LASF146:
ARM GAS  /tmp/ccSwRXu6.s 			page 92


 4738 08cf 43525950 		.ascii	"CRYP_IRQn\000"
 4738      5F495251 
 4738      6E00
 4739              	.LASF107:
 4740 08d9 45585449 		.ascii	"EXTI15_10_IRQn\000"
 4740      31355F31 
 4740      305F4952 
 4740      516E00
 4741              	.LASF13:
 4742 08e8 6C6F6E67 		.ascii	"long long unsigned int\000"
 4742      206C6F6E 
 4742      6720756E 
 4742      7369676E 
 4742      65642069 
 4743              	.LASF30:
 4744 08ff 705F6F6C 		.ascii	"p_older\000"
 4744      64657200 
 4745              	.LASF6:
 4746 0907 75696E74 		.ascii	"uint16_t\000"
 4746      31365F74 
 4746      00
 4747              	.LASF21:
 4748 0910 6D73675F 		.ascii	"msg_t\000"
 4748      7400
 4749              	.LASF96:
 4750 0916 54494D33 		.ascii	"TIM3_IRQn\000"
 4750      5F495251 
 4750      6E00
 4751              	.LASF104:
 4752 0920 55534152 		.ascii	"USART1_IRQn\000"
 4752      54315F49 
 4752      52516E00 
 4753              	.LASF19:
 4754 092c 74736C69 		.ascii	"tslices_t\000"
 4754      6365735F 
 4754      7400
 4755              	.LASF249:
 4756 0936 68616C66 		.ascii	"half_index\000"
 4756      5F696E64 
 4756      657800
 4757              	.LASF75:
 4758 0941 45585449 		.ascii	"EXTI2_IRQn\000"
 4758      325F4952 
 4758      516E00
 4759              	.LASF216:
 4760 094c 41444344 		.ascii	"ADCDriver\000"
 4760      72697665 
 4760      7200
 4761              	.LASF240:
 4762 0956 6164635F 		.ascii	"adc_lld_init\000"
 4762      6C6C645F 
 4762      696E6974 
 4762      00
 4763              	.LASF132:
 4764 0963 43414E32 		.ascii	"CAN2_RX1_IRQn\000"
 4764      5F525831 
 4764      5F495251 
ARM GAS  /tmp/ccSwRXu6.s 			page 93


 4764      6E00
 4765              	.LASF201:
 4766 0971 76656374 		.ascii	"vector\000"
 4766      6F7200
 4767              	.LASF85:
 4768 0978 4144435F 		.ascii	"ADC_IRQn\000"
 4768      4952516E 
 4768      00
 4769              	.LASF214:
 4770 0981 4144435F 		.ascii	"ADC_ERR_OVERFLOW\000"
 4770      4552525F 
 4770      4F564552 
 4770      464C4F57 
 4770      00
 4771              	.LASF248:
 4772 0992 68616C66 		.ascii	"half\000"
 4772      00
 4773              	.LASF187:
 4774 0997 41484233 		.ascii	"AHB3LPENR\000"
 4774      4C50454E 
 4774      5200
 4775              	.LASF253:
 4776 09a1 61646353 		.ascii	"adcSTM32EnableVBATE\000"
 4776      544D3332 
 4776      456E6162 
 4776      6C655642 
 4776      41544500 
 4777              	.LASF68:
 4778 09b5 5056445F 		.ascii	"PVD_IRQn\000"
 4778      4952516E 
 4778      00
 4779              	.LASF115:
 4780 09be 46534D43 		.ascii	"FSMC_IRQn\000"
 4780      5F495251 
 4780      6E00
 4781              	.LASF73:
 4782 09c8 45585449 		.ascii	"EXTI0_IRQn\000"
 4782      305F4952 
 4782      516E00
 4783              	.LASF16:
 4784 09d3 746D6F64 		.ascii	"tmode_t\000"
 4784      655F7400 
 4785              	.LASF82:
 4786 09db 444D4131 		.ascii	"DMA1_Stream4_IRQn\000"
 4786      5F537472 
 4786      65616D34 
 4786      5F495251 
 4786      6E00
 4787              	.LASF238:
 4788 09ed 64756D6D 		.ascii	"dummy\000"
 4788      7900
 4789              	.LASF205:
 4790 09f3 4144435F 		.ascii	"ADC_STOP\000"
 4790      53544F50 
 4790      00
 4791              	.LASF136:
 4792 09fc 444D4132 		.ascii	"DMA2_Stream6_IRQn\000"
ARM GAS  /tmp/ccSwRXu6.s 			page 94


 4792      5F537472 
 4792      65616D36 
 4792      5F495251 
 4792      6E00
 4793              	.LASF178:
 4794 0a0e 41484231 		.ascii	"AHB1ENR\000"
 4794      454E5200 
 4795              	.LASF64:
 4796 0a16 44656275 		.ascii	"DebugMonitor_IRQn\000"
 4796      674D6F6E 
 4796      69746F72 
 4796      5F495251 
 4796      6E00
 4797              	.LASF139:
 4798 0a28 49324333 		.ascii	"I2C3_EV_IRQn\000"
 4798      5F45565F 
 4798      4952516E 
 4798      00
 4799              	.LASF221:
 4800 0a35 67727070 		.ascii	"grpp\000"
 4800      00
 4801              	.LASF172:
 4802 0a3a 41484232 		.ascii	"AHB2RSTR\000"
 4802      52535452 
 4802      00
 4803              	.LASF222:
 4804 0a43 74687265 		.ascii	"thread\000"
 4804      616400
 4805              	.LASF166:
 4806 0a4a 4D304152 		.ascii	"M0AR\000"
 4806      00
 4807              	.LASF128:
 4808 0a4f 4554485F 		.ascii	"ETH_IRQn\000"
 4808      4952516E 
 4808      00
 4809              	.LASF196:
 4810 0a58 5243435F 		.ascii	"RCC_TypeDef\000"
 4810      54797065 
 4810      44656600 
 4811              	.LASF5:
 4812 0a64 73686F72 		.ascii	"short int\000"
 4812      7420696E 
 4812      7400
 4813              	.LASF72:
 4814 0a6e 5243435F 		.ascii	"RCC_IRQn\000"
 4814      4952516E 
 4814      00
 4815              	.LASF245:
 4816 0a77 6D6F6465 		.ascii	"mode\000"
 4816      00
 4817              	.LASF151:
 4818 0a7c 4A4F4652 		.ascii	"JOFR1\000"
 4818      3100
 4819              	.LASF152:
 4820 0a82 4A4F4652 		.ascii	"JOFR2\000"
 4820      3200
 4821              	.LASF153:
ARM GAS  /tmp/ccSwRXu6.s 			page 95


 4822 0a88 4A4F4652 		.ascii	"JOFR3\000"
 4822      3300
 4823              	.LASF154:
 4824 0a8e 4A4F4652 		.ascii	"JOFR4\000"
 4824      3400
 4825              	.LASF81:
 4826 0a94 444D4131 		.ascii	"DMA1_Stream3_IRQn\000"
 4826      5F537472 
 4826      65616D33 
 4826      5F495251 
 4826      6E00
 4827              	.LASF14:
 4828 0aa6 626F6F6C 		.ascii	"bool_t\000"
 4828      5F7400
 4829              	.LASF258:
 4830 0aad 6164634F 		.ascii	"adcObjectInit\000"
 4830      626A6563 
 4830      74496E69 
 4830      7400
 4831              	.LASF159:
 4832 0abb 4A445231 		.ascii	"JDR1\000"
 4832      00
 4833              	.LASF160:
 4834 0ac0 4A445232 		.ascii	"JDR2\000"
 4834      00
 4835              	.LASF161:
 4836 0ac5 4A445233 		.ascii	"JDR3\000"
 4836      00
 4837              	.LASF24:
 4838 0aca 54687265 		.ascii	"Thread\000"
 4838      616400
 4839              	.LASF158:
 4840 0ad1 4A535152 		.ascii	"JSQR\000"
 4840      00
 4841              	.LASF92:
 4842 0ad6 54494D31 		.ascii	"TIM1_UP_TIM10_IRQn\000"
 4842      5F55505F 
 4842      54494D31 
 4842      305F4952 
 4842      516E00
 4843              	.LASF255:
 4844 0ae9 49544D5F 		.ascii	"ITM_RxBuffer\000"
 4844      52784275 
 4844      66666572 
 4844      00
 4845              	.LASF18:
 4846 0af6 74726566 		.ascii	"trefs_t\000"
 4846      735F7400 
 4847              	.LASF141:
 4848 0afe 4F54475F 		.ascii	"OTG_HS_EP1_OUT_IRQn\000"
 4848      48535F45 
 4848      50315F4F 
 4848      55545F49 
 4848      52516E00 
 4849              	.LASF70:
 4850 0b12 5254435F 		.ascii	"RTC_WKUP_IRQn\000"
 4850      574B5550 
ARM GAS  /tmp/ccSwRXu6.s 			page 96


 4850      5F495251 
 4850      6E00
 4851              	.LASF165:
 4852 0b20 4E445452 		.ascii	"NDTR\000"
 4852      00
 4853              	.LASF259:
 4854 0b25 6E766963 		.ascii	"nvicEnableVector\000"
 4854      456E6162 
 4854      6C655665 
 4854      63746F72 
 4854      00
 4855              	.LASF10:
 4856 0b36 75696E74 		.ascii	"uint32_t\000"
 4856      33325F74 
 4856      00
 4857              	.LASF88:
 4858 0b3f 43414E31 		.ascii	"CAN1_RX1_IRQn\000"
 4858      5F525831 
 4858      5F495251 
 4858      6E00
 4859              	.LASF44:
 4860 0b4d 54687265 		.ascii	"ThreadsQueue\000"
 4860      61647351 
 4860      75657565 
 4860      00
 4861              	.LASF90:
 4862 0b5a 45585449 		.ascii	"EXTI9_5_IRQn\000"
 4862      395F355F 
 4862      4952516E 
 4862      00
 4863              	.LASF267:
 4864 0b67 6164635F 		.ascii	"adc_lld_serve_rx_interrupt\000"
 4864      6C6C645F 
 4864      73657276 
 4864      655F7278 
 4864      5F696E74 
 4865              	.LASF54:
 4866 0b82 7264796D 		.ascii	"rdymsg\000"
 4866      736700
 4867              	.LASF77:
 4868 0b89 45585449 		.ascii	"EXTI4_IRQn\000"
 4868      345F4952 
 4868      516E00
 4869              	.LASF7:
 4870 0b94 73686F72 		.ascii	"short unsigned int\000"
 4870      7420756E 
 4870      7369676E 
 4870      65642069 
 4870      6E7400
 4871              	.LASF113:
 4872 0ba7 54494D38 		.ascii	"TIM8_CC_IRQn\000"
 4872      5F43435F 
 4872      4952516E 
 4872      00
 4873              	.LASF116:
 4874 0bb4 5344494F 		.ascii	"SDIO_IRQn\000"
 4874      5F495251 
ARM GAS  /tmp/ccSwRXu6.s 			page 97


 4874      6E00
 4875              	.LASF76:
 4876 0bbe 45585449 		.ascii	"EXTI3_IRQn\000"
 4876      335F4952 
 4876      516E00
 4877              	.LASF65:
 4878 0bc9 50656E64 		.ascii	"PendSV_IRQn\000"
 4878      53565F49 
 4878      52516E00 
 4879              	.LASF142:
 4880 0bd5 4F54475F 		.ascii	"OTG_HS_EP1_IN_IRQn\000"
 4880      48535F45 
 4880      50315F49 
 4880      4E5F4952 
 4880      516E00
 4881              	.LASF114:
 4882 0be8 444D4131 		.ascii	"DMA1_Stream7_IRQn\000"
 4882      5F537472 
 4882      65616D37 
 4882      5F495251 
 4882      6E00
 4883              	.LASF171:
 4884 0bfa 41484231 		.ascii	"AHB1RSTR\000"
 4884      52535452 
 4884      00
 4885              	.LASF164:
 4886 0c03 4144435F 		.ascii	"ADC_Common_TypeDef\000"
 4886      436F6D6D 
 4886      6F6E5F54 
 4886      79706544 
 4886      656600
 4887              	.LASF198:
 4888 0c16 69666372 		.ascii	"ifcr\000"
 4888      00
 4889              	.LASF31:
 4890 0c1b 705F6E61 		.ascii	"p_name\000"
 4890      6D6500
 4891              	.LASF53:
 4892 0c22 6D5F6E65 		.ascii	"m_next\000"
 4892      787400
 4893              	.LASF252:
 4894 0c29 61646353 		.ascii	"adcSTM32DisableTSVREFE\000"
 4894      544D3332 
 4894      44697361 
 4894      626C6554 
 4894      53565245 
 4895              	.LASF180:
 4896 0c40 41484233 		.ascii	"AHB3ENR\000"
 4896      454E5200 
 4897              	.LASF125:
 4898 0c48 444D4132 		.ascii	"DMA2_Stream2_IRQn\000"
 4898      5F537472 
 4898      65616D32 
 4898      5F495251 
 4898      6E00
 4899              	.LASF39:
 4900 0c5a 705F6D73 		.ascii	"p_msg\000"
ARM GAS  /tmp/ccSwRXu6.s 			page 98


 4900      6700
 4901              	.LASF239:
 4902 0c60 41444343 		.ascii	"ADCConfig\000"
 4902      6F6E6669 
 4902      6700
 4903              	.LASF32:
 4904 0c6a 705F7374 		.ascii	"p_state\000"
 4904      61746500 
 4905              		.ident	"GCC: (GNU Tools for ARM Embedded Processors) 4.7.3 20130312 (release) [ARM/embedded-4_7-br
ARM GAS  /tmp/ccSwRXu6.s 			page 99


DEFINED SYMBOLS
                            *ABS*:0000000000000000 adc_lld.c
     /tmp/ccSwRXu6.s:19     .text.adc_lld_init:0000000000000000 $t
     /tmp/ccSwRXu6.s:25     .text.adc_lld_init:0000000000000000 adc_lld_init
     /tmp/ccSwRXu6.s:842    .bss.ADCD1:0000000000000000 .LANCHOR0
     /tmp/ccSwRXu6.s:68     .text.adc_lld_init:0000000000000034 $d
     /tmp/ccSwRXu6.s:73     .text.adc_lld_start:0000000000000000 $t
     /tmp/ccSwRXu6.s:79     .text.adc_lld_start:0000000000000000 adc_lld_start
     /tmp/ccSwRXu6.s:155    .text.adc_lld_start:0000000000000060 $d
     /tmp/ccSwRXu6.s:409    .text.adc_lld_serve_rx_interrupt:0000000000000000 adc_lld_serve_rx_interrupt
     /tmp/ccSwRXu6.s:162    .text.adc_lld_stop:0000000000000000 $t
     /tmp/ccSwRXu6.s:168    .text.adc_lld_stop:0000000000000000 adc_lld_stop
     /tmp/ccSwRXu6.s:221    .text.adc_lld_stop:0000000000000034 $d
     /tmp/ccSwRXu6.s:226    .text.adc_lld_start_conversion:0000000000000000 $t
     /tmp/ccSwRXu6.s:232    .text.adc_lld_start_conversion:0000000000000000 adc_lld_start_conversion
     /tmp/ccSwRXu6.s:349    .text.adc_lld_stop_conversion:0000000000000000 $t
     /tmp/ccSwRXu6.s:355    .text.adc_lld_stop_conversion:0000000000000000 adc_lld_stop_conversion
     /tmp/ccSwRXu6.s:404    .text.adc_lld_serve_rx_interrupt:0000000000000000 $t
     /tmp/ccSwRXu6.s:630    .text.Vector88:0000000000000000 $t
     /tmp/ccSwRXu6.s:636    .text.Vector88:0000000000000000 Vector88
     /tmp/ccSwRXu6.s:739    .text.Vector88:0000000000000070 $d
     /tmp/ccSwRXu6.s:744    .text.adcSTM32EnableTSVREFE:0000000000000000 $t
     /tmp/ccSwRXu6.s:750    .text.adcSTM32EnableTSVREFE:0000000000000000 adcSTM32EnableTSVREFE
     /tmp/ccSwRXu6.s:768    .text.adcSTM32DisableTSVREFE:0000000000000000 $t
     /tmp/ccSwRXu6.s:774    .text.adcSTM32DisableTSVREFE:0000000000000000 adcSTM32DisableTSVREFE
     /tmp/ccSwRXu6.s:792    .text.adcSTM32EnableVBATE:0000000000000000 $t
     /tmp/ccSwRXu6.s:798    .text.adcSTM32EnableVBATE:0000000000000000 adcSTM32EnableVBATE
     /tmp/ccSwRXu6.s:816    .text.adcSTM32DisableVBATE:0000000000000000 $t
     /tmp/ccSwRXu6.s:822    .text.adcSTM32DisableVBATE:0000000000000000 adcSTM32DisableVBATE
     /tmp/ccSwRXu6.s:845    .bss.ADCD1:0000000000000000 ADCD1
     /tmp/ccSwRXu6.s:841    .bss.ADCD1:0000000000000000 $d
                     .debug_frame:0000000000000010 $d
     /tmp/ccSwRXu6.s:72     .text.adc_lld_init:0000000000000038 $t
     /tmp/ccSwRXu6.s:161    .text.adc_lld_start:0000000000000068 $t
     /tmp/ccSwRXu6.s:225    .text.adc_lld_stop:0000000000000038 $t
     /tmp/ccSwRXu6.s:743    .text.Vector88:0000000000000074 $t

UNDEFINED SYMBOLS
adcObjectInit
nvicEnableVector
_stm32_dma_streams
dmaStreamAllocate
dmaStreamRelease
chSchReadyI
_port_irq_epilogue
