ARM GAS  /tmp/ccgRsbF3.s 			page 1


   1              		.syntax unified
   2              		.cpu cortex-m4
   3              		.fpu softvfp
   4              		.eabi_attribute 20, 1
   5              		.eabi_attribute 21, 1
   6              		.eabi_attribute 23, 3
   7              		.eabi_attribute 24, 1
   8              		.eabi_attribute 25, 1
   9              		.eabi_attribute 26, 1
  10              		.eabi_attribute 30, 2
  11              		.eabi_attribute 34, 1
  12              		.eabi_attribute 18, 4
  13              		.thumb
  14              		.file	"chprintf.c"
  15              		.text
  16              	.Ltext0:
  17              		.cfi_sections	.debug_frame
  18              		.section	.text.long_to_string_with_divisor.constprop.0,"ax",%progbits
  19              		.align	2
  20              		.p2align 4,,15
  21              		.thumb
  22              		.thumb_func
  23              		.type	long_to_string_with_divisor.constprop.0, %function
  24              	long_to_string_with_divisor.constprop.0:
  25              	.LFB10:
  26              		.file 1 "./ChibiOS/os/various/chprintf.c"
  27              		.loc 1 36 0
  28              		.cfi_startproc
  29              		@ args = 0, pretend = 0, frame = 0
  30              		@ frame_needed = 0, uses_anonymous_args = 0
  31              		@ link register save eliminated.
  32              	.LVL0:
  33 0000 F0B4     		push	{r4, r5, r6, r7}
  34              	.LCFI0:
  35              		.cfi_def_cfa_offset 16
  36              		.cfi_offset 4, -16
  37              		.cfi_offset 5, -12
  38              		.cfi_offset 6, -8
  39              		.cfi_offset 7, -4
  40              		.loc 1 51 0
  41 0002 00F10B0C 		add	ip, r0, #11
  42              		.loc 1 36 0
  43 0006 0746     		mov	r7, r0
  44              	.LVL1:
  45 0008 00F10A05 		add	r5, r0, #10
  46 000c 0C46     		mov	r4, r1
  47              	.LVL2:
  48              	.L3:
  49              		.loc 1 53 0
  50 000e B1FBF2F6 		udiv	r6, r1, r2
  51 0012 02FB1611 		mls	r1, r2, r6, r1
  52              	.LVL3:
  53              		.loc 1 54 0
  54 0016 01F13003 		add	r3, r1, #48
  55              	.LVL4:
  56              		.loc 1 55 0
  57 001a 392B     		cmp	r3, #57
ARM GAS  /tmp/ccgRsbF3.s 			page 2


  58              		.loc 1 56 0
  59 001c C8BF     		it	gt
  60 001e 01F13703 		addgt	r3, r1, #55
  61              	.LVL5:
  62              		.loc 1 57 0
  63 0022 DBB2     		uxtb	r3, r3
  64              	.LVL6:
  65              		.loc 1 59 0
  66 0024 B4FBF2F4 		udiv	r4, r4, r2
  67              	.LVL7:
  68              		.loc 1 57 0
  69 0028 2846     		mov	r0, r5
  70              	.LVL8:
  71              		.loc 1 58 0
  72 002a 3146     		mov	r1, r6
  73              	.LVL9:
  74              		.loc 1 57 0
  75 002c 05F80139 		strb	r3, [r5], #-1
  76              	.LVL10:
  77              		.loc 1 59 0
  78 0030 002C     		cmp	r4, #0
  79 0032 ECD1     		bne	.L3
  80              	.LVL11:
  81              		.loc 1 61 0
  82 0034 C0EB0C02 		rsb	r2, r0, ip
  83              	.LVL12:
  84 0038 0146     		mov	r1, r0
  85              	.LVL13:
  86              		.loc 1 36 0
  87 003a B818     		adds	r0, r7, r2
  88              	.LVL14:
  89 003c FA43     		mvns	r2, r7
  90              	.LVL15:
  91 003e 8218     		adds	r2, r0, r2
  92 0040 D207     		lsls	r2, r2, #31
  93 0042 0AD5     		bpl	.L5
  94              	.LVL16:
  95              		.loc 1 63 0
  96 0044 07F8013B 		strb	r3, [r7], #1
  97              	.LVL17:
  98 0048 11F8013F 		ldrb	r3, [r1, #1]!	@ zero_extendqisi2
  99 004c 05E0     		b	.L5
 100              	.L15:
 101 004e 11F8013F 		ldrb	r3, [r1, #1]!	@ zero_extendqisi2
 102              	.LVL18:
 103 0052 7B70     		strb	r3, [r7, #1]
 104 0054 11F8013F 		ldrb	r3, [r1, #1]!	@ zero_extendqisi2
 105 0058 571C     		adds	r7, r2, #1
 106              	.LVL19:
 107              	.L5:
 108 005a 3A46     		mov	r2, r7
 109 005c 02F8013B 		strb	r3, [r2], #1
 110              		.loc 1 64 0
 111 0060 8242     		cmp	r2, r0
 112 0062 F4D1     		bne	.L15
 113              		.loc 1 67 0
 114 0064 F0BC     		pop	{r4, r5, r6, r7}
ARM GAS  /tmp/ccgRsbF3.s 			page 3


 115 0066 7047     		bx	lr
 116              		.cfi_endproc
 117              	.LFE10:
 118              		.size	long_to_string_with_divisor.constprop.0, .-long_to_string_with_divisor.constprop.0
 119 0068 AFF30080 		.section	.text.chprintf,"ax",%progbits
 119      AFF30080 
 120              		.align	2
 121              		.p2align 4,,15
 122              		.global	chprintf
 123              		.thumb
 124              		.thumb_func
 125              		.type	chprintf, %function
 126              	chprintf:
 127              	.LFB9:
 128              		.loc 1 108 0
 129              		.cfi_startproc
 130              		@ args = 4, pretend = 12, frame = 24
 131              		@ frame_needed = 0, uses_anonymous_args = 1
 132              	.LVL20:
 133 0000 0EB4     		push	{r1, r2, r3}
 134              	.LCFI1:
 135              		.cfi_def_cfa_offset 12
 136              		.cfi_offset 1, -12
 137              		.cfi_offset 2, -8
 138              		.cfi_offset 3, -4
 139 0002 2DE9F04F 		push	{r4, r5, r6, r7, r8, r9, sl, fp, lr}
 140              	.LCFI2:
 141              		.cfi_def_cfa_offset 48
 142              		.cfi_offset 4, -48
 143              		.cfi_offset 5, -44
 144              		.cfi_offset 6, -40
 145              		.cfi_offset 7, -36
 146              		.cfi_offset 8, -32
 147              		.cfi_offset 9, -28
 148              		.cfi_offset 10, -24
 149              		.cfi_offset 11, -20
 150              		.cfi_offset 14, -16
 151 0006 86B0     		sub	sp, sp, #24
 152              	.LCFI3:
 153              		.cfi_def_cfa_offset 72
 154              		.loc 1 108 0
 155 0008 0FAB     		add	r3, sp, #60
 156              		.loc 1 236 0
 157 000a 0DF10D01 		add	r1, sp, #13
 158              		.loc 1 132 0
 159 000e 0DF10C0B 		add	fp, sp, #12
 160              		.loc 1 108 0
 161 0012 53F8044B 		ldr	r4, [r3], #4
 162              		.loc 1 236 0
 163 0016 0091     		str	r1, [sp, #0]
 164 0018 CBEB010C 		rsb	ip, fp, r1
 165              		.loc 1 121 0
 166 001c 0293     		str	r3, [sp, #8]
 167              		.loc 1 108 0
 168 001e 0546     		mov	r5, r0
 169 0020 CDF804C0 		str	ip, [sp, #4]
 170              	.LVL21:
ARM GAS  /tmp/ccgRsbF3.s 			page 4


 171              	.L110:
 172              		.loc 1 123 0
 173 0024 2646     		mov	r6, r4
 174 0026 16F8011B 		ldrb	r1, [r6], #1	@ zero_extendqisi2
 175              	.LVL22:
 176              		.loc 1 124 0
 177 002a 59B1     		cbz	r1, .L109
 178              	.LVL23:
 179              	.L123:
 180              		.loc 1 128 0
 181 002c 2529     		cmp	r1, #37
 182 002e 0ED0     		beq	.L19
 183              		.loc 1 129 0
 184 0030 2C68     		ldr	r4, [r5, #0]
 185 0032 A368     		ldr	r3, [r4, #8]
 186              		.loc 1 123 0
 187 0034 3446     		mov	r4, r6
 188 0036 2646     		mov	r6, r4
 189              	.LVL24:
 190              		.loc 1 129 0
 191 0038 2846     		mov	r0, r5
 192 003a 9847     		blx	r3
 193              	.LVL25:
 194              		.loc 1 123 0
 195 003c 16F8011B 		ldrb	r1, [r6], #1	@ zero_extendqisi2
 196              	.LVL26:
 197              		.loc 1 124 0
 198 0040 0029     		cmp	r1, #0
 199 0042 F3D1     		bne	.L123
 200              	.LVL27:
 201              	.L109:
 202              		.loc 1 261 0
 203 0044 06B0     		add	sp, sp, #24
 204 0046 BDE8F04F 		pop	{r4, r5, r6, r7, r8, r9, sl, fp, lr}
 205 004a 03B0     		add	sp, sp, #12
 206 004c 7047     		bx	lr
 207              	.L19:
 208              	.LVL28:
 209              		.loc 1 135 0
 210 004e 6378     		ldrb	r3, [r4, #1]	@ zero_extendqisi2
 211 0050 2D2B     		cmp	r3, #45
 212 0052 00F07A81 		beq	.L124
 213              		.loc 1 134 0
 214 0056 4FF00008 		mov	r8, #0
 215              	.LVL29:
 216              	.L21:
 217              		.loc 1 140 0
 218 005a 2E2B     		cmp	r3, #46
 219 005c 00F07181 		beq	.L125
 220              		.loc 1 139 0
 221 0060 2027     		movs	r7, #32
 222              	.LVL30:
 223              	.L22:
 224              		.loc 1 142 0
 225 0062 3446     		mov	r4, r6
 226 0064 0299     		ldr	r1, [sp, #8]
 227              		.loc 1 144 0
ARM GAS  /tmp/ccgRsbF3.s 			page 5


 228 0066 0026     		movs	r6, #0
 229              	.LVL31:
 230 0068 06E0     		b	.L25
 231              	.LVL32:
 232              	.L126:
 233              		.loc 1 150 0
 234 006a 0A78     		ldrb	r2, [r1, #0]	@ zero_extendqisi2
 235              	.LVL33:
 236 006c 0431     		adds	r1, r1, #4
 237              	.LVL34:
 238              	.L23:
 239              		.loc 1 153 0
 240 006e 06EB8606 		add	r6, r6, r6, lsl #2
 241              	.LVL35:
 242 0072 2378     		ldrb	r3, [r4, #0]	@ zero_extendqisi2
 243 0074 02EB4606 		add	r6, r2, r6, lsl #1
 244              	.LVL36:
 245              	.L25:
 246              		.loc 1 147 0
 247 0078 A3F13002 		sub	r2, r3, #48
 248 007c D2B2     		uxtb	r2, r2
 249              		.loc 1 146 0
 250 007e 0134     		adds	r4, r4, #1
 251              	.LVL37:
 252              		.loc 1 147 0
 253 0080 092A     		cmp	r2, #9
 254 0082 F4D9     		bls	.L23
 255              		.loc 1 149 0
 256 0084 2A2B     		cmp	r3, #42
 257 0086 F0D0     		beq	.L126
 258              		.loc 1 156 0
 259 0088 0020     		movs	r0, #0
 260 008a 2E2B     		cmp	r3, #46
 261 008c 0291     		str	r1, [sp, #8]
 262              	.LVL38:
 263 008e 4BD0     		beq	.L29
 264              	.LVL39:
 265              		.loc 1 170 0
 266 0090 6C2B     		cmp	r3, #108
 267 0092 55D0     		beq	.L30
 268              	.LVL40:
 269              	.L127:
 270              		.loc 1 170 0 is_stmt 0 discriminator 1
 271 0094 4C2B     		cmp	r3, #76
 272 0096 53D0     		beq	.L30
 273              		.loc 1 176 0 is_stmt 1
 274 0098 A3F14101 		sub	r1, r3, #65
 275 009c 1929     		cmp	r1, #25
 276 009e 8CBF     		ite	hi
 277 00a0 0021     		movhi	r1, #0
 278 00a2 0121     		movls	r1, #1
 279              	.LVL41:
 280              	.L32:
 281              		.loc 1 179 0
 282 00a4 A3F14402 		sub	r2, r3, #68
 283 00a8 342A     		cmp	r2, #52
 284 00aa 00F24481 		bhi	.L33
ARM GAS  /tmp/ccgRsbF3.s 			page 6


 285 00ae DFE812F0 		tbh	[pc, r2, lsl #1]
 286              	.L40:
 287 00b2 3301     		.2byte	(.L34-.L40)/2
 288 00b4 4201     		.2byte	(.L33-.L40)/2
 289 00b6 4201     		.2byte	(.L33-.L40)/2
 290 00b8 4201     		.2byte	(.L33-.L40)/2
 291 00ba 4201     		.2byte	(.L33-.L40)/2
 292 00bc 3301     		.2byte	(.L34-.L40)/2
 293 00be 4201     		.2byte	(.L33-.L40)/2
 294 00c0 4201     		.2byte	(.L33-.L40)/2
 295 00c2 4201     		.2byte	(.L33-.L40)/2
 296 00c4 4201     		.2byte	(.L33-.L40)/2
 297 00c6 4201     		.2byte	(.L33-.L40)/2
 298 00c8 3101     		.2byte	(.L35-.L40)/2
 299 00ca 4201     		.2byte	(.L33-.L40)/2
 300 00cc 4201     		.2byte	(.L33-.L40)/2
 301 00ce 4201     		.2byte	(.L33-.L40)/2
 302 00d0 4201     		.2byte	(.L33-.L40)/2
 303 00d2 4201     		.2byte	(.L33-.L40)/2
 304 00d4 2901     		.2byte	(.L63-.L40)/2
 305 00d6 4201     		.2byte	(.L33-.L40)/2
 306 00d8 4201     		.2byte	(.L33-.L40)/2
 307 00da 1C01     		.2byte	(.L37-.L40)/2
 308 00dc 4201     		.2byte	(.L33-.L40)/2
 309 00de 4201     		.2byte	(.L33-.L40)/2
 310 00e0 4201     		.2byte	(.L33-.L40)/2
 311 00e2 4201     		.2byte	(.L33-.L40)/2
 312 00e4 4201     		.2byte	(.L33-.L40)/2
 313 00e6 4201     		.2byte	(.L33-.L40)/2
 314 00e8 4201     		.2byte	(.L33-.L40)/2
 315 00ea 4201     		.2byte	(.L33-.L40)/2
 316 00ec 4201     		.2byte	(.L33-.L40)/2
 317 00ee 4201     		.2byte	(.L33-.L40)/2
 318 00f0 E200     		.2byte	(.L38-.L40)/2
 319 00f2 3301     		.2byte	(.L34-.L40)/2
 320 00f4 4201     		.2byte	(.L33-.L40)/2
 321 00f6 4201     		.2byte	(.L33-.L40)/2
 322 00f8 4201     		.2byte	(.L33-.L40)/2
 323 00fa 4201     		.2byte	(.L33-.L40)/2
 324 00fc 3301     		.2byte	(.L34-.L40)/2
 325 00fe 4201     		.2byte	(.L33-.L40)/2
 326 0100 4201     		.2byte	(.L33-.L40)/2
 327 0102 4201     		.2byte	(.L33-.L40)/2
 328 0104 4201     		.2byte	(.L33-.L40)/2
 329 0106 4201     		.2byte	(.L33-.L40)/2
 330 0108 3101     		.2byte	(.L35-.L40)/2
 331 010a 4201     		.2byte	(.L33-.L40)/2
 332 010c 4201     		.2byte	(.L33-.L40)/2
 333 010e 4201     		.2byte	(.L33-.L40)/2
 334 0110 4F00     		.2byte	(.L39-.L40)/2
 335 0112 4201     		.2byte	(.L33-.L40)/2
 336 0114 2901     		.2byte	(.L63-.L40)/2
 337 0116 4201     		.2byte	(.L33-.L40)/2
 338 0118 4201     		.2byte	(.L33-.L40)/2
 339 011a 1C01     		.2byte	(.L37-.L40)/2
 340              	.LVL42:
 341              	.L28:
ARM GAS  /tmp/ccgRsbF3.s 			page 7


 342              		.loc 1 162 0
 343 011c 0A78     		ldrb	r2, [r1, #0]	@ zero_extendqisi2
 344              	.LVL43:
 345 011e 0431     		adds	r1, r1, #4
 346              	.LVL44:
 347              	.L27:
 348              		.loc 1 165 0
 349 0120 00EB8003 		add	r3, r0, r0, lsl #2
 350              	.LVL45:
 351              		.loc 1 166 0
 352 0124 02EB4300 		add	r0, r2, r3, lsl #1
 353              	.LVL46:
 354              	.L29:
 355              		.loc 1 158 0
 356 0128 14F8013B 		ldrb	r3, [r4], #1	@ zero_extendqisi2
 357              	.LVL47:
 358              		.loc 1 159 0
 359 012c A3F13002 		sub	r2, r3, #48
 360 0130 D2B2     		uxtb	r2, r2
 361 0132 092A     		cmp	r2, #9
 362 0134 F4D9     		bls	.L27
 363              		.loc 1 161 0
 364 0136 2A2B     		cmp	r3, #42
 365 0138 F0D0     		beq	.L28
 366              		.loc 1 170 0
 367 013a 6C2B     		cmp	r3, #108
 368 013c 0291     		str	r1, [sp, #8]
 369 013e A9D1     		bne	.L127
 370              	.LVL48:
 371              	.L30:
 372              		.loc 1 172 0
 373 0140 2178     		ldrb	r1, [r4, #0]	@ zero_extendqisi2
 374 0142 0029     		cmp	r1, #0
 375 0144 00F00681 		beq	.L62
 376              	.LVL49:
 377              		.loc 1 173 0
 378 0148 0B46     		mov	r3, r1
 379 014a 0134     		adds	r4, r4, #1
 380              	.LVL50:
 381              		.loc 1 171 0
 382 014c 0121     		movs	r1, #1
 383 014e A9E7     		b	.L32
 384              	.LVL51:
 385              	.L39:
 386              		.loc 1 186 0
 387 0150 029F     		ldr	r7, [sp, #8]
 388              		.loc 1 187 0
 389 0152 40F20009 		movw	r9, #:lower16:.LC0
 390              		.loc 1 186 0
 391 0156 3B68     		ldr	r3, [r7, #0]
 392              	.LVL52:
 393              		.loc 1 187 0
 394 0158 C0F20009 		movt	r9, #:upper16:.LC0
 395 015c 002B     		cmp	r3, #0
 396 015e 18BF     		it	ne
 397 0160 9946     		movne	r9, r3
 398              	.LVL53:
ARM GAS  /tmp/ccgRsbF3.s 			page 8


 399              		.loc 1 186 0
 400 0162 391D     		adds	r1, r7, #4
 401              	.LVL54:
 402              		.loc 1 190 0
 403 0164 99F80020 		ldrb	r2, [r9, #0]	@ zero_extendqisi2
 404              	.LVL55:
 405              		.loc 1 186 0
 406 0168 0291     		str	r1, [sp, #8]
 407              		.loc 1 189 0
 408 016a 47F6FF77 		movw	r7, #32767
 409 016e 0028     		cmp	r0, #0
 410 0170 08BF     		it	eq
 411 0172 3846     		moveq	r0, r7
 412              	.LVL56:
 413              		.loc 1 190 0
 414 0174 002A     		cmp	r2, #0
 415 0176 00F00981 		beq	.L66
 416 017a 99F80130 		ldrb	r3, [r9, #1]	@ zero_extendqisi2
 417 017e 411E     		subs	r1, r0, #1
 418 0180 09EB000A 		add	sl, r9, r0
 419              		.loc 1 108 0
 420 0184 09F10102 		add	r2, r9, #1
 421              	.LVL57:
 422 0188 01F00100 		and	r0, r1, #1
 423              		.loc 1 190 0
 424 018c B3B1     		cbz	r3, .L111
 425 018e 9245     		cmp	sl, r2
 426 0190 1346     		mov	r3, r2
 427 0192 00F0F780 		beq	.L112
 428 0196 60B1     		cbz	r0, .L45
 429 0198 5778     		ldrb	r7, [r2, #1]	@ zero_extendqisi2
 430              		.loc 1 108 0
 431 019a 0132     		adds	r2, r2, #1
 432              	.LVL58:
 433              		.loc 1 190 0
 434 019c 77B1     		cbz	r7, .L111
 435 019e 9245     		cmp	sl, r2
 436 01a0 1346     		mov	r3, r2
 437 01a2 06D1     		bne	.L45
 438 01a4 EEE0     		b	.L112
 439              	.L44:
 440              		.loc 1 190 0 is_stmt 0 discriminator 2
 441 01a6 5778     		ldrb	r7, [r2, #1]	@ zero_extendqisi2
 442              		.loc 1 108 0 is_stmt 1 discriminator 2
 443 01a8 0132     		adds	r2, r2, #1
 444              	.LVL59:
 445              		.loc 1 190 0 discriminator 2
 446 01aa 3FB1     		cbz	r7, .L111
 447              		.loc 1 190 0 is_stmt 0
 448 01ac 9A45     		cmp	sl, r3
 449 01ae 00F0E980 		beq	.L112
 450              	.L45:
 451              		.loc 1 190 0 discriminator 1
 452 01b2 5878     		ldrb	r0, [r3, #1]	@ zero_extendqisi2
 453              		.loc 1 108 0 is_stmt 1 discriminator 1
 454 01b4 5A1C     		adds	r2, r3, #1
 455              	.LVL60:
ARM GAS  /tmp/ccgRsbF3.s 			page 9


 456 01b6 531C     		adds	r3, r2, #1
 457              		.loc 1 190 0 discriminator 1
 458 01b8 0028     		cmp	r0, #0
 459 01ba F4D1     		bne	.L44
 460              	.LVL61:
 461              	.L111:
 462 01bc C9EB020A 		rsb	sl, r9, r2
 463              		.loc 1 240 0
 464 01c0 CAEB0606 		rsb	r6, sl, r6
 465              	.LVL62:
 466              		.loc 1 185 0
 467 01c4 2027     		movs	r7, #32
 468              	.LVL63:
 469 01c6 26EAE676 		bic	r6, r6, r6, asr #31
 470              	.LVL64:
 471              		.loc 1 242 0
 472 01ca B8F1000F 		cmp	r8, #0
 473 01ce 63D0     		beq	.L128
 474              	.LVL65:
 475              	.L51:
 476              		.loc 1 253 0 discriminator 1
 477 01d0 BAF1000F 		cmp	sl, #0
 478 01d4 27DD     		ble	.L57
 479              		.loc 1 254 0
 480 01d6 C846     		mov	r8, r9
 481 01d8 2868     		ldr	r0, [r5, #0]
 482 01da 18F8011B 		ldrb	r1, [r8], #1	@ zero_extendqisi2
 483 01de 8368     		ldr	r3, [r0, #8]
 484              		.loc 1 108 0
 485 01e0 CA44     		add	sl, r9, sl
 486              	.LVL66:
 487 01e2 6FEA0909 		mvn	r9, r9
 488              	.LVL67:
 489 01e6 0AEB0902 		add	r2, sl, r9
 490              		.loc 1 254 0
 491 01ea 2846     		mov	r0, r5
 492 01ec 02F00109 		and	r9, r2, #1
 493              	.LVL68:
 494 01f0 9847     		blx	r3
 495              	.LVL69:
 496              		.loc 1 253 0
 497 01f2 D045     		cmp	r8, sl
 498 01f4 17D0     		beq	.L57
 499 01f6 B9F1000F 		cmp	r9, #0
 500 01fa 03D0     		beq	.L56
 501              	.LVL70:
 502              		.loc 1 254 0
 503 01fc 2868     		ldr	r0, [r5, #0]
 504 01fe 18F8011B 		ldrb	r1, [r8], #1	@ zero_extendqisi2
 505 0202 0BE0     		b	.L122
 506              	.L56:
 507 0204 2868     		ldr	r0, [r5, #0]
 508 0206 C146     		mov	r9, r8
 509 0208 8268     		ldr	r2, [r0, #8]
 510 020a 19F8011B 		ldrb	r1, [r9], #1	@ zero_extendqisi2
 511 020e 2846     		mov	r0, r5
 512 0210 9047     		blx	r2
ARM GAS  /tmp/ccgRsbF3.s 			page 10


 513              	.LVL71:
 514 0212 2868     		ldr	r0, [r5, #0]
 515 0214 98F80110 		ldrb	r1, [r8, #1]	@ zero_extendqisi2
 516 0218 09F10108 		add	r8, r9, #1
 517              	.L122:
 518 021c 8368     		ldr	r3, [r0, #8]
 519 021e 2846     		mov	r0, r5
 520 0220 9847     		blx	r3
 521              	.LVL72:
 522              		.loc 1 253 0
 523 0222 D045     		cmp	r8, sl
 524 0224 EED1     		bne	.L56
 525              	.L57:
 526              	.LVL73:
 527              		.loc 1 256 0
 528 0226 002E     		cmp	r6, #0
 529 0228 3FF4FCAE 		beq	.L110
 530              		.loc 1 257 0
 531 022c 2968     		ldr	r1, [r5, #0]
 532 022e 731E     		subs	r3, r6, #1
 533 0230 8A68     		ldr	r2, [r1, #8]
 534              		.loc 1 256 0
 535 0232 1E46     		mov	r6, r3
 536              	.LVL74:
 537              		.loc 1 257 0
 538 0234 2846     		mov	r0, r5
 539 0236 3946     		mov	r1, r7
 540 0238 03F00108 		and	r8, r3, #1
 541 023c 9047     		blx	r2
 542              	.LVL75:
 543              		.loc 1 256 0
 544 023e 002E     		cmp	r6, #0
 545 0240 3FF4F0AE 		beq	.L110
 546 0244 B8F1000F 		cmp	r8, #0
 547 0248 07D0     		beq	.L72
 548              		.loc 1 257 0
 549 024a 2968     		ldr	r1, [r5, #0]
 550 024c 2846     		mov	r0, r5
 551 024e 8B68     		ldr	r3, [r1, #8]
 552 0250 3946     		mov	r1, r7
 553 0252 9847     		blx	r3
 554              	.LVL76:
 555              		.loc 1 256 0
 556 0254 013E     		subs	r6, r6, #1
 557 0256 3FF4E5AE 		beq	.L110
 558              	.L72:
 559              		.loc 1 257 0
 560 025a 2868     		ldr	r0, [r5, #0]
 561 025c 3946     		mov	r1, r7
 562 025e 8268     		ldr	r2, [r0, #8]
 563 0260 2846     		mov	r0, r5
 564 0262 9047     		blx	r2
 565              	.LVL77:
 566 0264 2968     		ldr	r1, [r5, #0]
 567              		.loc 1 258 0
 568 0266 013E     		subs	r6, r6, #1
 569              		.loc 1 257 0
ARM GAS  /tmp/ccgRsbF3.s 			page 11


 570 0268 8B68     		ldr	r3, [r1, #8]
 571 026a 2846     		mov	r0, r5
 572 026c 3946     		mov	r1, r7
 573 026e 9847     		blx	r3
 574              	.LVL78:
 575              		.loc 1 256 0
 576 0270 013E     		subs	r6, r6, #1
 577 0272 F2D1     		bne	.L72
 578 0274 D6E6     		b	.L110
 579              	.LVL79:
 580              	.L38:
 581              		.loc 1 182 0
 582 0276 0298     		ldr	r0, [sp, #8]
 583              	.LVL80:
 584 0278 DDF804A0 		ldr	sl, [sp, #4]
 585 027c 0268     		ldr	r2, [r0, #0]
 586 027e 011D     		adds	r1, r0, #4
 587              	.LVL81:
 588 0280 0291     		str	r1, [sp, #8]
 589 0282 8DF80C20 		strb	r2, [sp, #12]
 590              	.LVL82:
 591              		.loc 1 181 0
 592 0286 2027     		movs	r7, #32
 593              		.loc 1 133 0
 594 0288 D946     		mov	r9, fp
 595              	.LVL83:
 596              	.L41:
 597              		.loc 1 240 0
 598 028a CAEB0606 		rsb	r6, sl, r6
 599              	.LVL84:
 600 028e 26EAE676 		bic	r6, r6, r6, asr #31
 601              	.LVL85:
 602              		.loc 1 242 0
 603 0292 B8F1000F 		cmp	r8, #0
 604 0296 9BD1     		bne	.L51
 605              	.LVL86:
 606              	.L128:
 607              		.loc 1 243 0
 608 0298 7642     		negs	r6, r6
 609              	.LVL87:
 610              		.loc 1 244 0
 611 029a 002E     		cmp	r6, #0
 612 029c 98D0     		beq	.L51
 613              		.loc 1 245 0
 614 029e 99F80010 		ldrb	r1, [r9, #0]	@ zero_extendqisi2
 615 02a2 2D29     		cmp	r1, #45
 616 02a4 63D0     		beq	.L129
 617              	.L97:
 618              		.loc 1 250 0
 619 02a6 2968     		ldr	r1, [r5, #0]
 620 02a8 F243     		mvns	r2, r6
 621 02aa 8B68     		ldr	r3, [r1, #8]
 622 02ac 2846     		mov	r0, r5
 623 02ae 3946     		mov	r1, r7
 624 02b0 02F00108 		and	r8, r2, #1
 625              	.LVL88:
 626 02b4 9847     		blx	r3
ARM GAS  /tmp/ccgRsbF3.s 			page 12


 627              	.LVL89:
 628              		.loc 1 251 0
 629 02b6 0136     		adds	r6, r6, #1
 630              	.LVL90:
 631 02b8 8AD0     		beq	.L51
 632 02ba B8F1000F 		cmp	r8, #0
 633 02be 06D0     		beq	.L73
 634              		.loc 1 250 0
 635 02c0 2968     		ldr	r1, [r5, #0]
 636 02c2 2846     		mov	r0, r5
 637 02c4 8A68     		ldr	r2, [r1, #8]
 638 02c6 3946     		mov	r1, r7
 639 02c8 9047     		blx	r2
 640              	.LVL91:
 641              		.loc 1 251 0
 642 02ca 0136     		adds	r6, r6, #1
 643              	.LVL92:
 644 02cc 80D0     		beq	.L51
 645              	.L73:
 646              		.loc 1 250 0 discriminator 1
 647 02ce 2868     		ldr	r0, [r5, #0]
 648 02d0 3946     		mov	r1, r7
 649 02d2 8368     		ldr	r3, [r0, #8]
 650 02d4 2846     		mov	r0, r5
 651 02d6 9847     		blx	r3
 652              	.LVL93:
 653 02d8 2968     		ldr	r1, [r5, #0]
 654              		.loc 1 251 0 discriminator 1
 655 02da 0136     		adds	r6, r6, #1
 656              	.LVL94:
 657              		.loc 1 250 0 discriminator 1
 658 02dc 8A68     		ldr	r2, [r1, #8]
 659 02de 2846     		mov	r0, r5
 660 02e0 3946     		mov	r1, r7
 661 02e2 9047     		blx	r2
 662              	.LVL95:
 663              		.loc 1 251 0 discriminator 1
 664 02e4 0136     		adds	r6, r6, #1
 665              	.LVL96:
 666 02e6 F2D1     		bne	.L73
 667 02e8 72E7     		b	.L51
 668              	.LVL97:
 669              	.L37:
 670              		.loc 1 179 0
 671 02ea 1022     		movs	r2, #16
 672              	.LVL98:
 673              	.L36:
 674              		.loc 1 230 0
 675 02ec 029B     		ldr	r3, [sp, #8]
 676              		.loc 1 229 0
 677 02ee 69B1     		cbz	r1, .L49
 678              	.L130:
 679              		.loc 1 230 0
 680 02f0 191D     		adds	r1, r3, #4
 681              	.LVL99:
 682 02f2 0291     		str	r1, [sp, #8]
 683 02f4 1968     		ldr	r1, [r3, #0]
ARM GAS  /tmp/ccgRsbF3.s 			page 13


 684              	.LVL100:
 685              	.L50:
 686              	.LBB6:
 687              	.LBB7:
 688              		.loc 1 71 0
 689 02f6 5846     		mov	r0, fp
 690 02f8 FFF7FEFF 		bl	long_to_string_with_divisor.constprop.0
 691              	.LVL101:
 692              	.LBE7:
 693              	.LBE6:
 694              		.loc 1 133 0
 695 02fc D946     		mov	r9, fp
 696 02fe CBEB000A 		rsb	sl, fp, r0
 697              		.loc 1 234 0
 698 0302 C2E7     		b	.L41
 699              	.LVL102:
 700              	.L63:
 701              		.loc 1 179 0
 702 0304 0A22     		movs	r2, #10
 703              	.LVL103:
 704              		.loc 1 230 0
 705 0306 029B     		ldr	r3, [sp, #8]
 706              		.loc 1 229 0
 707 0308 0029     		cmp	r1, #0
 708 030a F1D1     		bne	.L130
 709              	.L49:
 710              		.loc 1 232 0
 711 030c 181D     		adds	r0, r3, #4
 712              	.LVL104:
 713 030e 1968     		ldr	r1, [r3, #0]
 714              	.LVL105:
 715 0310 0290     		str	r0, [sp, #8]
 716 0312 F0E7     		b	.L50
 717              	.LVL106:
 718              	.L35:
 719 0314 0822     		movs	r2, #8
 720 0316 E9E7     		b	.L36
 721              	.LVL107:
 722              	.L34:
 723              		.loc 1 198 0
 724 0318 029B     		ldr	r3, [sp, #8]
 725              	.LVL108:
 726 031a 1A1D     		adds	r2, r3, #4
 727              	.LVL109:
 728              		.loc 1 197 0
 729 031c E1B9     		cbnz	r1, .L131
 730              		.loc 1 200 0
 731 031e 1968     		ldr	r1, [r3, #0]
 732              	.LVL110:
 733 0320 0292     		str	r2, [sp, #8]
 734              		.loc 1 201 0
 735 0322 0029     		cmp	r1, #0
 736 0324 1CDB     		blt	.L132
 737              	.L67:
 738              		.loc 1 132 0
 739 0326 5846     		mov	r0, fp
 740              	.LVL111:
ARM GAS  /tmp/ccgRsbF3.s 			page 14


 741              	.L48:
 742              	.LBB8:
 743              	.LBB9:
 744              		.loc 1 71 0
 745 0328 0A22     		movs	r2, #10
 746 032a FFF7FEFF 		bl	long_to_string_with_divisor.constprop.0
 747              	.LVL112:
 748              	.LBE9:
 749              	.LBE8:
 750              		.loc 1 133 0
 751 032e D946     		mov	r9, fp
 752 0330 CBEB000A 		rsb	sl, fp, r0
 753              		.loc 1 206 0
 754 0334 A9E7     		b	.L41
 755              	.LVL113:
 756              	.L33:
 757              		.loc 1 236 0
 758 0336 8DF80C30 		strb	r3, [sp, #12]
 759              	.LVL114:
 760 033a DDF804A0 		ldr	sl, [sp, #4]
 761              		.loc 1 133 0
 762 033e D946     		mov	r9, fp
 763              		.loc 1 237 0
 764 0340 A3E7     		b	.L41
 765              	.LVL115:
 766              	.L125:
 767 0342 7378     		ldrb	r3, [r6, #1]	@ zero_extendqisi2
 768              		.loc 1 142 0
 769 0344 3027     		movs	r7, #48
 770              		.loc 1 141 0
 771 0346 0136     		adds	r6, r6, #1
 772              	.LVL116:
 773 0348 8BE6     		b	.L22
 774              	.LVL117:
 775              	.L124:
 776              		.loc 1 136 0
 777 034a A61C     		adds	r6, r4, #2
 778              	.LVL118:
 779 034c A378     		ldrb	r3, [r4, #2]	@ zero_extendqisi2
 780              		.loc 1 137 0
 781 034e 4FF00108 		mov	r8, #1
 782 0352 82E6     		b	.L21
 783              	.LVL119:
 784              	.L62:
 785              		.loc 1 171 0
 786 0354 0121     		movs	r1, #1
 787 0356 A5E6     		b	.L32
 788              	.LVL120:
 789              	.L131:
 790              		.loc 1 198 0
 791 0358 1968     		ldr	r1, [r3, #0]
 792              	.LVL121:
 793 035a 0292     		str	r2, [sp, #8]
 794              		.loc 1 201 0
 795 035c 0029     		cmp	r1, #0
 796 035e E2DA     		bge	.L67
 797              	.L132:
ARM GAS  /tmp/ccgRsbF3.s 			page 15


 798              		.loc 1 202 0
 799 0360 2D20     		movs	r0, #45
 800              	.LVL122:
 801 0362 8DF80C00 		strb	r0, [sp, #12]
 802              	.LVL123:
 803              		.loc 1 203 0
 804 0366 4942     		negs	r1, r1
 805              	.LVL124:
 806              		.loc 1 202 0
 807 0368 0DF10D00 		add	r0, sp, #13
 808 036c DCE7     		b	.L48
 809              	.LVL125:
 810              	.L129:
 811              		.loc 1 245 0 discriminator 1
 812 036e 302F     		cmp	r7, #48
 813 0370 99D1     		bne	.L97
 814              		.loc 1 246 0
 815 0372 2B68     		ldr	r3, [r5, #0]
 816 0374 2846     		mov	r0, r5
 817 0376 9A68     		ldr	r2, [r3, #8]
 818 0378 9047     		blx	r2
 819              	.LVL126:
 820 037a 09F10109 		add	r9, r9, #1
 821              	.LVL127:
 822              		.loc 1 247 0
 823 037e 0AF1FF3A 		add	sl, sl, #-1
 824              	.LVL128:
 825 0382 90E7     		b	.L97
 826              	.LVL129:
 827              	.L112:
 828 0384 C9EB0A0A 		rsb	sl, r9, sl
 829              		.loc 1 185 0
 830 0388 2027     		movs	r7, #32
 831 038a 7EE7     		b	.L41
 832              	.LVL130:
 833              	.L66:
 834              		.loc 1 190 0
 835 038c 9246     		mov	sl, r2
 836              		.loc 1 185 0
 837 038e 2027     		movs	r7, #32
 838 0390 7BE7     		b	.L41
 839              		.cfi_endproc
 840              	.LFE9:
 841              		.size	chprintf, .-chprintf
 842 0392 00BFAFF3 		.section	.rodata.str1.4,"aMS",%progbits,1
 842      0080AFF3 
 842      0080AFF3 
 842      0080
 843              		.align	2
 844              	.LC0:
 845 0000 286E756C 		.ascii	"(null)\000"
 845      6C2900
 846 0007 00       		.text
 847              	.Letext0:
 848              		.file 2 "/usr/bin/../lib/gcc/arm-none-eabi/4.7.3/include/stdarg.h"
 849              		.file 3 "/usr/bin/../lib/gcc/arm-none-eabi/4.7.3/include/stddef.h"
 850              		.file 4 "/usr/bin/../lib/gcc/arm-none-eabi/4.7.3/../../../../arm-none-eabi/include/stdint.h"
ARM GAS  /tmp/ccgRsbF3.s 			page 16


 851              		.file 5 "./ChibiOS/os/ports/GCC/ARMCMx/chtypes.h"
 852              		.file 6 "<built-in>"
 853              		.file 7 "./ChibiOS/os/kernel/include/chstreams.h"