ARM GAS  /tmp/cclLhSSK.s 			page 1


   1              		.syntax unified
   2              		.cpu cortex-m4
   3              		.fpu softvfp
   4              		.eabi_attribute 20, 1
   5              		.eabi_attribute 21, 1
   6              		.eabi_attribute 23, 3
   7              		.eabi_attribute 24, 1
   8              		.eabi_attribute 25, 1
   9              		.eabi_attribute 26, 1
  10              		.eabi_attribute 30, 2
  11              		.eabi_attribute 34, 1
  12              		.eabi_attribute 18, 4
  13              		.thumb
  14              		.file	"hal.c"
  15              		.text
  16              	.Ltext0:
  17              		.cfi_sections	.debug_frame
  18              		.section	.text.halInit,"ax",%progbits
  19              		.align	2
  20              		.p2align 4,,15
  21              		.global	halInit
  22              		.thumb
  23              		.thumb_func
  24              		.type	halInit, %function
  25              	halInit:
  26              	.LFB118:
  27              		.file 1 "./ChibiOS/os/hal/src/hal.c"
  28              		.loc 1 61 0
  29              		.cfi_startproc
  30              		@ args = 0, pretend = 0, frame = 0
  31              		@ frame_needed = 0, uses_anonymous_args = 0
  32 0000 08B5     		push	{r3, lr}
  33              	.LCFI0:
  34              		.cfi_def_cfa_offset 8
  35              		.cfi_offset 3, -8
  36              		.cfi_offset 14, -4
  37              		.loc 1 63 0
  38 0002 FFF7FEFF 		bl	hal_lld_init
  39              	.LVL0:
  40              		.loc 1 69 0
  41 0006 40F20000 		movw	r0, #:lower16:pal_default_config
  42 000a C0F20000 		movt	r0, #:upper16:pal_default_config
  43 000e FFF7FEFF 		bl	_pal_lld_init
  44              	.LVL1:
  45              		.loc 1 72 0
  46 0012 FFF7FEFF 		bl	adcInit
  47              	.LVL2:
  48              		.loc 1 93 0
  49 0016 FFF7FEFF 		bl	pwmInit
  50              	.LVL3:
  51              		.loc 1 96 0
  52 001a FFF7FEFF 		bl	sdInit
  53              	.LVL4:
  54              		.loc 1 102 0
  55 001e FFF7FEFF 		bl	spiInit
  56              	.LVL5:
  57              		.loc 1 121 0
ARM GAS  /tmp/cclLhSSK.s 			page 2


  58 0022 BDE80840 		pop	{r3, lr}
  59              		.loc 1 120 0
  60 0026 FFF7FEBF 		b	boardInit
  61              	.LVL6:
  62              		.cfi_endproc
  63              	.LFE118:
  64              		.size	halInit, .-halInit
  65 002a 00BFAFF3 		.section	.text.halIsCounterWithin,"ax",%progbits
  65      0080
  66              		.align	2
  67              		.p2align 4,,15
  68              		.global	halIsCounterWithin
  69              		.thumb
  70              		.thumb_func
  71              		.type	halIsCounterWithin, %function
  72              	halIsCounterWithin:
  73              	.LFB119:
  74              		.loc 1 167 0
  75              		.cfi_startproc
  76              		@ args = 0, pretend = 0, frame = 0
  77              		@ frame_needed = 0, uses_anonymous_args = 0
  78              		@ link register save eliminated.
  79              	.LVL7:
  80              		.loc 1 168 0
  81 0000 4FF48053 		mov	r3, #4096
  82 0004 CEF20003 		movt	r3, 57344
  83              		.loc 1 170 0
  84 0008 8142     		cmp	r1, r0
  85              		.loc 1 168 0
  86 000a 5A68     		ldr	r2, [r3, #4]
  87              	.LVL8:
  88              		.loc 1 170 0
  89 000c 06D9     		bls	.L3
  90              		.loc 1 170 0 is_stmt 0 discriminator 1
  91 000e 8242     		cmp	r2, r0
  92 0010 08D3     		bcc	.L7
  93              	.L9:
  94              		.loc 1 171 0 is_stmt 1 discriminator 2
  95 0012 8A42     		cmp	r2, r1
  96 0014 2CBF     		ite	cs
  97 0016 0020     		movcs	r0, #0
  98              	.LVL9:
  99 0018 0120     		movcc	r0, #1
 100 001a 7047     		bx	lr
 101              	.LVL10:
 102              	.L3:
 103              		.loc 1 171 0 is_stmt 0
 104 001c 8242     		cmp	r2, r0
 105 001e F8D3     		bcc	.L9
 106 0020 0120     		movs	r0, #1
 107              	.LVL11:
 108              		.loc 1 172 0 is_stmt 1
 109 0022 7047     		bx	lr
 110              	.LVL12:
 111              	.L7:
 112              		.loc 1 170 0
 113 0024 0020     		movs	r0, #0
ARM GAS  /tmp/cclLhSSK.s 			page 3


 114              	.LVL13:
 115 0026 7047     		bx	lr
 116              		.cfi_endproc
 117              	.LFE119:
 118              		.size	halIsCounterWithin, .-halIsCounterWithin
 119 0028 AFF30080 		.section	.text.halPolledDelay,"ax",%progbits
 119      AFF30080 
 120              		.align	2
 121              		.p2align 4,,15
 122              		.global	halPolledDelay
 123              		.thumb
 124              		.thumb_func
 125              		.type	halPolledDelay, %function
 126              	halPolledDelay:
 127              	.LFB120:
 128              		.loc 1 186 0
 129              		.cfi_startproc
 130              		@ args = 0, pretend = 0, frame = 0
 131              		@ frame_needed = 0, uses_anonymous_args = 0
 132              		@ link register save eliminated.
 133              	.LVL14:
 134              		.loc 1 187 0
 135 0000 4FF48053 		mov	r3, #4096
 136 0004 CEF20003 		movt	r3, 57344
 137              	.LBB4:
 138              	.LBB5:
 139              		.loc 1 168 0
 140 0008 1946     		mov	r1, r3
 141              	.LBE5:
 142              	.LBE4:
 143              		.loc 1 187 0
 144 000a 5A68     		ldr	r2, [r3, #4]
 145              	.LVL15:
 146              		.loc 1 188 0
 147 000c 8018     		adds	r0, r0, r2
 148              	.LVL16:
 149              	.L21:
 150              	.LBB7:
 151              	.LBB6:
 152              		.loc 1 170 0 discriminator 1
 153 000e 8242     		cmp	r2, r0
 154              		.loc 1 168 0 discriminator 1
 155 0010 4B68     		ldr	r3, [r1, #4]
 156              	.LVL17:
 157              		.loc 1 170 0 discriminator 1
 158 0012 02D2     		bcs	.L12
 159              		.loc 1 170 0 is_stmt 0
 160 0014 9A42     		cmp	r2, r3
 161 0016 02D9     		bls	.L22
 162 0018 7047     		bx	lr
 163              	.L12:
 164              		.loc 1 171 0 is_stmt 1
 165 001a 9A42     		cmp	r2, r3
 166 001c F7D9     		bls	.L21
 167              	.L22:
 168 001e 9842     		cmp	r0, r3
 169 0020 94BF     		ite	ls
ARM GAS  /tmp/cclLhSSK.s 			page 4


 170 0022 0023     		movls	r3, #0
 171              	.LVL18:
 172 0024 0123     		movhi	r3, #1
 173              	.LBE6:
 174              	.LBE7:
 175              		.loc 1 189 0
 176 0026 002B     		cmp	r3, #0
 177 0028 F1D1     		bne	.L21
 178 002a 7047     		bx	lr
 179              		.cfi_endproc
 180              	.LFE120:
 181              		.size	halPolledDelay, .-halPolledDelay
 182 002c AFF30080 		.text
 183              	.Letext0:
 184              		.file 2 "/usr/bin/../lib/gcc/arm-none-eabi/4.7.3/../../../../arm-none-eabi/include/stdint.h"
 185              		.file 3 "./ChibiOS/os/ports/GCC/ARMCMx/chtypes.h"
 186              		.file 4 "./ChibiOS/os/ports/common/ARMCMx/nvic.h"
 187              		.file 5 "./ChibiOS/os/hal/platforms/STM32F4xx/hal_lld.h"
 188              		.file 6 "./ChibiOS/os/hal/platforms/STM32/GPIOv2/pal_lld.h"
 189              		.file 7 "./ChibiOS/os/ports/common/ARMCMx/CMSIS/include/core_cm4.h"
 190              		.file 8 "./ChibiOS/os/hal/include/adc.h"
 191              		.file 9 "./ChibiOS/os/hal/include/pwm.h"
 192              		.file 10 "./ChibiOS/os/hal/include/serial.h"
 193              		.file 11 "./ChibiOS/os/hal/include/spi.h"
 194              		.file 12 "./ChibiOS/boards/ST_STM32F4_DISCOVERY/board.h"